LX51 LINKER/LOCATER V4.66.97.0                                                          10/03/2022  19:06:35  PAGE 1


LX51 LINKER/LOCATER V4.66.97.0, INVOKED BY:
C:\KEIL_V5\C51\BIN\LX51.EXE .\build\Target 1\keypad.o, .\build\Target 1\om3.o, .\build\Target 1\tm1640.o, .\build\Target
>>  1\utility.o, .\build\Target 1\weight.o, .\build\Target 1\MEMORY.o TO .\build\Target 1\om3 PRINT (.\build\Target 1\om
>> 3.map)


CPU MODE:     8051 MODE
MEMORY MODEL: SMALL WITH FLOATING POINT ARITHMETIC


INPUT MODULES INCLUDED:
  .\build\Target 1\keypad.o (KEYPAD)
         COMMENT TYPE 0: C51 V9.60.0.0
  .\build\Target 1\om3.o (OM3)
         COMMENT TYPE 0: C51 V9.60.0.0
  .\build\Target 1\tm1640.o (TM1640)
         COMMENT TYPE 0: C51 V9.60.0.0
  .\build\Target 1\utility.o (UTILITY)
         COMMENT TYPE 0: C51 V9.60.0.0
  .\build\Target 1\weight.o (WEIGHT)
         COMMENT TYPE 0: C51 V9.60.0.0
  .\build\Target 1\MEMORY.o (MEMORY)
         COMMENT TYPE 1: A51 / ASM51 Assembler
  C:\KEIL_V5\C51\LIB\C51FPS.LIB (?C?FPMUL)
         COMMENT TYPE 1: A51 / ASM51 Assembler
  C:\KEIL_V5\C51\LIB\C51FPS.LIB (?C?FPCMP)
         COMMENT TYPE 1: A51 / ASM51 Assembler
  C:\KEIL_V5\C51\LIB\C51FPS.LIB (PRINTF)
         COMMENT TYPE 1: A51 / ASM51 Assembler
  C:\KEIL_V5\C51\LIB\C51FPS.LIB (ATOF)
         COMMENT TYPE 1: A51 / ASM51 Assembler
  C:\KEIL_V5\C51\LIB\C51FPS.LIB (?C?FPGETOPN)
         COMMENT TYPE 1: A51 / ASM51 Assembler
  C:\KEIL_V5\C51\LIB\C51FPS.LIB (?C?FPROUND)
         COMMENT TYPE 1: A51 / ASM51 Assembler
  C:\KEIL_V5\C51\LIB\C51FPS.LIB (?C?FPCONVERT)
         COMMENT TYPE 1: A51 / ASM51 Assembler
  C:\KEIL_V5\C51\LIB\C51FPS.LIB (?C?ATOF)
         COMMENT TYPE 1: A51 / ASM51 Assembler
  C:\KEIL_V5\C51\LIB\C51FPS.LIB (?C?FPADD)
         COMMENT TYPE 1: A51 / ASM51 Assembler
  C:\KEIL_V5\C51\LIB\C51FPS.LIB (?C?FPDIV)
         COMMENT TYPE 1: A51 / ASM51 Assembler
  C:\KEIL_V5\C51\LIB\C51FPS.LIB (?C?FPNEG)
         COMMENT TYPE 1: A51 / ASM51 Assembler
  C:\KEIL_V5\C51\LIB\C51FPS.LIB (?C?FCAST)
         COMMENT TYPE 1: A51 / ASM51 Assembler
  C:\KEIL_V5\C51\LIB\C51FPS.LIB (?C?FTNPWR)
         COMMENT TYPE 1: A51 / ASM51 Assembler
  C:\KEIL_V5\C51\LIB\C51S.LIB (?C_STARTUP)
         COMMENT TYPE 1: A51 / ASM51 Assembler
  C:\KEIL_V5\C51\LIB\C51S.LIB (?C?CLDPTR)
         COMMENT TYPE 1: A51 / ASM51 Assembler
  C:\KEIL_V5\C51\LIB\C51S.LIB (?C?CLDOPTR)
         COMMENT TYPE 1: A51 / ASM51 Assembler
  C:\KEIL_V5\C51\LIB\C51S.LIB (?C?CSTPTR)
         COMMENT TYPE 1: A51 / ASM51 Assembler
  C:\KEIL_V5\C51\LIB\C51S.LIB (?C?CSTOPTR)
         COMMENT TYPE 1: A51 / ASM51 Assembler
  C:\KEIL_V5\C51\LIB\C51S.LIB (?C?LNEG)
         COMMENT TYPE 1: A51 / ASM51 Assembler
  C:\KEIL_V5\C51\LIB\C51S.LIB (?C?ULCMP)
         COMMENT TYPE 1: A51 / ASM51 Assembler
  C:\KEIL_V5\C51\LIB\C51S.LIB (?C?LLDXDATA)
         COMMENT TYPE 1: A51 / ASM51 Assembler
  C:\KEIL_V5\C51\LIB\C51S.LIB (?C?LLDXDATA0)
LX51 LINKER/LOCATER V4.66.97.0                                                        10/03/2022  19:06:35  PAGE 2


         COMMENT TYPE 1: A51 / ASM51 Assembler
  C:\KEIL_V5\C51\LIB\C51S.LIB (?C?LSTXDATA)
         COMMENT TYPE 1: A51 / ASM51 Assembler
  C:\KEIL_V5\C51\LIB\C51S.LIB (?C?LSTKXDATA)
         COMMENT TYPE 1: A51 / ASM51 Assembler
  C:\KEIL_V5\C51\LIB\C51S.LIB (?C?PLDIIDATA)
         COMMENT TYPE 1: A51 / ASM51 Assembler
  C:\KEIL_V5\C51\LIB\C51S.LIB (?C?CCASE)
         COMMENT TYPE 1: A51 / ASM51 Assembler
  C:\KEIL_V5\C51\LIB\C51S.LIB (PUTCHAR)
         COMMENT TYPE 1: A51 / ASM51 Assembler
  C:\KEIL_V5\C51\LIB\C51S.LIB (ISSPACE)
         COMMENT TYPE 1: C51 Compiler
  C:\KEIL_V5\C51\LIB\C51S.LIB (STRLEN)
         COMMENT TYPE 1: A51 / ASM51 Assembler
  C:\KEIL_V5\C51\LIB\C51S.LIB (?C_INIT)
         COMMENT TYPE 1: A51 / ASM51 Assembler


ACTIVE MEMORY CLASSES OF MODULE:  .\build\Target 1\om3 (KEYPAD)

BASE        START       END         USED      MEMORY CLASS
==========================================================
C:000000H   C:000000H   C:00FFFFH   003296H   CODE
I:000000H   I:000000H   I:00007FH   00005CH   DATA
C:000000H   C:000000H   C:00FFFFH   000014H   CONST
X:000000H   X:000000H   X:00FFFFH   00008BH   XDATA
I:000020H.0 I:000020H.0 I:00002FH.7 000001H.1 BIT
I:000000H   I:000000H   I:0000FFH   000001H   IDATA


MEMORY MAP OF MODULE:  .\build\Target 1\om3 (KEYPAD)


START     STOP      LENGTH    ALIGN  RELOC    MEMORY CLASS   SEGMENT NAME
=========================================================================

* * * * * * * * * * *   D A T A   M E M O R Y   * * * * * * * * * * * * *
000000H   000007H   000008H   ---    AT..     DATA           "REG BANK 0"
000008H   00000EH   000007H   BYTE   UNIT     DATA           ?DT?_SAVEPRICETOMEMORY?MEMORY
00000FH   000014H   000006H   BYTE   UNIT     DATA           ?DT?KEY_DISPLAY?OM3
000015H   000018H   000004H   BYTE   UNIT     DATA           ?DT?_TM1640_DISPLAY?TM1640
000019H   00001BH   000003H   BYTE   UNIT     DATA           ?DT?OM3
00001CH.0 00001FH.7 000004H.0 ---    ---      **GAP**
000020H.0 000021H.0 000001H.1 BIT    UNIT     BIT            _BIT_GROUP_
000021H.1 000021H   000000H.7 ---    ---      **GAP**
000022H   000061H   000040H   BYTE   UNIT     DATA           _DATA_GROUP_
000062H   000062H   000001H   BYTE   UNIT     IDATA          ?STACK

* * * * * * * * * * *   C O D E   M E M O R Y   * * * * * * * * * * * * *
000000H   000002H   000003H   ---    OFFS..   CODE           ?CO??C_STARTUP?0
000003H   000E3AH   000E38H   BYTE   UNIT     CODE           ?PR?_TM1640_UM_DISPLAY?TM1640
000E3BH   0018A0H   000A66H   BYTE   UNIT     CODE           ?PR?_TM1640_DIGICHK?TM1640
0018A1H   001F16H   000676H   BYTE   UNIT     CODE           ?C?LIB_CODE
001F17H   002385H   00046FH   BYTE   UNIT     CODE           ?PR?PRINTF?PRINTF
002386H   00259AH   000215H   BYTE   UNIT     CODE           ?PR?_GETNUMBERDISPLAYFLOAT?OM3
00259BH   0026C2H   000128H   BYTE   UNIT     CODE           ?PR?SCAN_KEYPAD?KEYPAD
0026C3H   0027BBH   0000F9H   BYTE   UNIT     CODE           ?PR?INITIALIZEDISPLAY?OM3
0027BCH   0028A1H   0000E6H   BYTE   UNIT     CODE           ?PR??C?ATOF??C?ATOF
0028A2H   002980H   0000DFH   BYTE   UNIT     CODE           ?PR?HANDLEMODEONE?OM3
002981H   002A37H   0000B7H   BYTE   UNIT     CODE           ?PR?MAIN?OM3
002A38H   002AE3H   0000ACH   BYTE   UNIT     CODE           ?PR?HANDLENUMBERINPUT?OM3
002AE4H   002B8FH   0000ACH   BYTE   UNIT     CODE           ?C_INITSEG
002B90H   002C36H   0000A7H   BYTE   UNIT     CODE           ?PR?_TM1640_L_DISPLAY?TM1640
002C37H   002CC6H   000090H   BYTE   UNIT     CODE           ?PR?_TM1640_U_DISPLAY?TM1640
LX51 LINKER/LOCATER V4.66.97.0                                                        10/03/2022  19:06:35  PAGE 3


002CC7H   002D56H   000090H   BYTE   UNIT     CODE           ?PR?_TM1640_M_DISPLAY?TM1640
002D57H   002DE2H   00008CH   BYTE   UNIT     CODE           ?C_C51STARTUP
002DE3H   002E62H   000080H   BYTE   UNIT     CODE           ?PR?_SAVEPRICETOMEMORY?MEMORY
002E63H   002ED6H   000074H   BYTE   UNIT     CODE           ?PR?_GETPRICEFROMMEMORY?MEMORY
002ED7H   002F46H   000070H   BYTE   UNIT     CODE           ?PR?LDELAY?UTILITY
002F47H   002F93H   00004DH   BYTE   UNIT     CODE           ?PR?_TM1640WRITEBYTE?TM1640
002F94H   002FDCH   000049H   BYTE   UNIT     CODE           ?PR?_KEY_SORT?OM3
002FDDH   003024H   000048H   BYTE   UNIT     CODE           ?PR?_TM1640_DISPLAY?TM1640
003025H   00306CH   000048H   BYTE   UNIT     CODE           ?PR?ATOF?ATOF
00306DH   0030ABH   00003FH   BYTE   UNIT     CODE           ?PR?LOADMEMORY?OM3
0030ACH   0030E9H   00003EH   BYTE   UNIT     CODE           ?PR?_JOINCHARACTER?UTILITY
0030EAH   003125H   00003CH   BYTE   UNIT     CODE           ?PR?DISPLAYPRICE?OM3
003126H   003154H   00002FH   BYTE   UNIT     CODE           ?PR?_TM1640_INIT?TM1640
003155H   003180H   00002CH   BYTE   UNIT     CODE           ?PR?ADDTOINPUTPRICE?OM3
003181H   0031A7H   000027H   BYTE   UNIT     CODE           ?PR?PUTCHAR?PUTCHAR
0031A8H   0031C7H   000020H   BYTE   UNIT     CODE           ?PR?_DELAY_SOME_TIME?UTILITY
0031C8H   0031E4H   00001DH   BYTE   UNIT     CODE           ?PR?KEY_DISPLAY?OM3
0031E5H   003201H   00001DH   BYTE   UNIT     CODE           ?PR?TM1640START?TM1640
003202H   00321DH   00001CH   BYTE   UNIT     CODE           ?PR?CLEARPRICE?OM3
00321EH   003235H   000018H   BYTE   UNIT     CODE           ?PR?KEYPAD_GPIO_CONFIG?OM3
003236H   00324AH   000015H   BYTE   UNIT     CODE           ?PR?_STRLEN?STRLEN
00324BH   00325EH   000014H   BYTE   UNIT     CODE           ?PR?TM1640STOP?TM1640
00325FH   003271H   000013H   BYTE   UNIT     CODE           ?PR?_ISSPACE?ISSPACE
003272H   003280H   00000FH   BYTE   UNIT     CODE           ?PR?DISPLAYWEIGHT?OM3
003281H   00328BH   00000BH   BYTE   UNIT     CODE           ?PR?TM1640_GPIO_CONFIG?TM1640
00328CH   003294H   000009H   BYTE   UNIT     CODE           ?PR?GETWEIGHT?WEIGHT
003295H   003295H   000001H   BYTE   UNIT     CODE           ?PR?LOADPRICESFROMMEMORY?MEMORY
003296H   0032A9H   000014H   BYTE   UNIT     CONST          ?CO?OM3

* * * * * * * * * * *  X D A T A   M E M O R Y  * * * * * * * * * * * * *
000000H   00006EH   00006FH   BYTE   UNIT     XDATA          ?XD?OM3
00006FH   00008AH   00001CH   BYTE   UNIT     XDATA          ?XD?MEMORY



OVERLAY MAP OF MODULE:   .\build\Target 1\om3 (KEYPAD)


FUNCTION/MODULE                   BIT_GROUP   DATA_GROUP 
--> CALLED FUNCTION/MODULE       START  STOP  START  STOP
=========================================================
?C_C51STARTUP                    ----- -----  ----- -----
  +--> MAIN/OM3
  +--> ?C_INITSEG

MAIN/OM3                         ----- -----  ----- -----
  +--> INITIALIZEDISPLAY/OM3
  +--> GETWEIGHT/WEIGHT
  +--> SCAN_KEYPAD/KEYPAD
  +--> _DELAY_SOME_TIME/UTILITY
  +--> CLEARPRICE/OM3
  +--> DISPLAYPRICE/OM3
  +--> LOADMEMORY/OM3
  +--> HANDLENUMBERINPUT/OM3
  +--> DISPLAYWEIGHT/OM3

INITIALIZEDISPLAY/OM3            ----- -----  ----- -----
  +--> TM1640_GPIO_CONFIG/TM1640
  +--> KEYPAD_GPIO_CONFIG/OM3
  +--> _TM1640_INIT/TM1640
  +--> _DELAY_SOME_TIME/UTILITY
  +--> _TM1640_U_DISPLAY/TM1640
  +--> _TM1640_M_DISPLAY/TM1640
  +--> _TM1640_L_DISPLAY/TM1640
  +--> LDELAY/UTILITY
LX51 LINKER/LOCATER V4.66.97.0                                                        10/03/2022  19:06:35  PAGE 4


  +--> _TM1640_UM_DISPLAY/TM1640
  +--> _TM1640_DIGICHK/TM1640
  +--> _GETNUMBERDISPLAYFLOAT/OM3
  +--> LOADPRICESFROMMEMORY/MEMORY

TM1640_GPIO_CONFIG/TM1640        ----- -----  ----- -----

KEYPAD_GPIO_CONFIG/OM3           ----- -----  ----- -----

_TM1640_INIT/TM1640              ----- -----  0022H 0022H
  +--> _DELAY_SOME_TIME/UTILITY
  +--> TM1640START/TM1640
  +--> _TM1640WRITEBYTE/TM1640
  +--> TM1640STOP/TM1640

_DELAY_SOME_TIME/UTILITY         ----- -----  ----- -----

TM1640START/TM1640               ----- -----  ----- -----
  +--> _DELAY_SOME_TIME/UTILITY

_TM1640WRITEBYTE/TM1640          ----- -----  0029H 002AH
  +--> _DELAY_SOME_TIME/UTILITY

TM1640STOP/TM1640                ----- -----  ----- -----
  +--> _DELAY_SOME_TIME/UTILITY

_TM1640_U_DISPLAY/TM1640         ----- -----  0022H 0024H
  +--> TM1640START/TM1640
  +--> _TM1640WRITEBYTE/TM1640
  +--> TM1640STOP/TM1640

_TM1640_M_DISPLAY/TM1640         ----- -----  0026H 0028H
  +--> TM1640START/TM1640
  +--> _TM1640WRITEBYTE/TM1640
  +--> TM1640STOP/TM1640

_TM1640_L_DISPLAY/TM1640         ----- -----  0026H 0028H
  +--> TM1640START/TM1640
  +--> _TM1640WRITEBYTE/TM1640
  +--> TM1640STOP/TM1640

LDELAY/UTILITY                   ----- -----  0022H 0029H

_TM1640_UM_DISPLAY/TM1640        ----- -----  0022H 0024H
  +--> TM1640START/TM1640
  +--> _TM1640WRITEBYTE/TM1640
  +--> TM1640STOP/TM1640
  +--> _DELAY_SOME_TIME/UTILITY

_TM1640_DIGICHK/TM1640           ----- -----  0022H 0024H
  +--> TM1640START/TM1640
  +--> _TM1640WRITEBYTE/TM1640
  +--> TM1640STOP/TM1640
  +--> _DELAY_SOME_TIME/UTILITY

_GETNUMBERDISPLAYFLOAT/OM3       ----- -----  0026H 0045H
  +--> PRINTF/PRINTF
  +--> _STRLEN/STRLEN

PRINTF/PRINTF                    20H.0 21H.0  0046H 0061H
  +--> PUTCHAR/PUTCHAR

PUTCHAR/PUTCHAR                  ----- -----  ----- -----

_STRLEN/STRLEN                   ----- -----  ----- -----
LX51 LINKER/LOCATER V4.66.97.0                                                        10/03/2022  19:06:35  PAGE 5



LOADPRICESFROMMEMORY/MEMORY      ----- -----  ----- -----

GETWEIGHT/WEIGHT                 ----- -----  ----- -----

SCAN_KEYPAD/KEYPAD               ----- -----  ----- -----

CLEARPRICE/OM3                   ----- -----  ----- -----

DISPLAYPRICE/OM3                 ----- -----  ----- -----
  +--> _GETNUMBERDISPLAYFLOAT/OM3
  +--> _TM1640_M_DISPLAY/TM1640
  +--> _TM1640_L_DISPLAY/TM1640

LOADMEMORY/OM3                   ----- -----  0022H 0025H
  +--> _GETPRICEFROMMEMORY/MEMORY
  +--> DISPLAYPRICE/OM3

_GETPRICEFROMMEMORY/MEMORY       ----- -----  0026H 0029H

HANDLENUMBERINPUT/OM3            ----- -----  ----- -----
  +--> _STRLEN/STRLEN
  +--> HANDLEMODEONE/OM3

HANDLEMODEONE/OM3                ----- -----  ----- -----
  +--> CLEARPRICE/OM3
  +--> _JOINCHARACTER/UTILITY
  +--> ATOF/ATOF
  +--> ADDTOINPUTPRICE/OM3
  +--> DISPLAYPRICE/OM3

_JOINCHARACTER/UTILITY           ----- -----  0022H 0027H

ATOF/ATOF                        ----- -----  0022H 0024H
  +--> _ISSPACE/ISSPACE
  +--> ?C?ATOF?/C/ATOF

_ISSPACE/ISSPACE                 ----- -----  ----- -----

?C?ATOF?/C/ATOF                  20H.0 20H.4  0025H 0026H

ADDTOINPUTPRICE/OM3              ----- -----  ----- -----
  +--> _JOINCHARACTER/UTILITY
  +--> ATOF/ATOF

DISPLAYWEIGHT/OM3                ----- -----  ----- -----
  +--> _GETNUMBERDISPLAYFLOAT/OM3
  +--> _TM1640_U_DISPLAY/TM1640

?C_INITSEG                       ----- -----  ----- -----



PUBLIC SYMBOLS OF MODULE:  .\build\Target 1\om3 (KEYPAD)


      VALUE       CLASS    TYPE      PUBLIC SYMBOL NAME
      =================================================
      00000026H   DATA     BYTE      ?_getNumberDisplayFloat?BYTE
      00000022H   DATA     BYTE      ?_joinCharacter?BYTE
      00000046H   DATA     ---       ?_PRINTF?BYTE
      00000008H   DATA     ---       ?_SAVEPRICETOMEMORY?BYTE
      00000046H   DATA     ---       ?_SPRINTF?BYTE
      00000020H.0 BIT      ---       ?C?ATOFFIRSTCALL
      01001EF1H   CODE     ---       ?C?CCASE
LX51 LINKER/LOCATER V4.66.97.0                                                        10/03/2022  19:06:35  PAGE 6


      01001E0CH   CODE     ---       ?C?CLDOPTR
      01001DF3H   CODE     ---       ?C?CLDPTR
      00000000H   NUMBER   ---       ?C?CODESEG
      01001E4BH   CODE     ---       ?C?CSTOPTR
      01001E39H   CODE     ---       ?C?CSTPTR
      01001D4FH   CODE     ---       ?C?FCASTC
      01001D4AH   CODE     ---       ?C?FCASTI
      01001D45H   CODE     ---       ?C?FCASTL
      01001BA3H   CODE     ---       ?C?FPADD
      010027CFH   CODE     ---       ?C?FPATOF
      010019A9H   CODE     ---       ?C?FPCMP
      010019A7H   CODE     ---       ?C?FPCMP3
      01001A99H   CODE     ---       ?C?FPCONVERT
      01001C97H   CODE     ---       ?C?FPDIV
      01001A20H   CODE     ---       ?C?FPGETOPN2
      010018A1H   CODE     ---       ?C?FPMUL
      01001A55H   CODE     ---       ?C?FPNANRESULT
      01001D34H   CODE     ---       ?C?FPNEG
      01001A5FH   CODE     ---       ?C?FPOVERFLOW
      01001A37H   CODE     ---       ?C?FPRESULT
      01001A4BH   CODE     ---       ?C?FPRESULT2
      01001A6AH   CODE     ---       ?C?FPROUND
      01001B9FH   CODE     ---       ?C?FPSUB
      01001A5CH   CODE     ---       ?C?FPUNDERFLOW
      01001DB3H   CODE     ---       ?C?FTNPWR
      01001E8CH   CODE     ---       ?C?LLDXDATA
      01001E98H   CODE     ---       ?C?LLDXDATA0
      01001E6DH   CODE     ---       ?C?LNEG
      01001EB0H   CODE     ---       ?C?LSTKXDATA
      01001EA4H   CODE     ---       ?C?LSTXDATA
      01001EE1H   CODE     ---       ?C?PLDIIDATA
      01001E7BH   CODE     ---       ?C?ULCMP
      00000000H   NUMBER   ---       ?C?XDATASEG
      01002D9EH   CODE     ---       ?C_START
      01000000H   CODE     ---       ?C_STARTUP
      01003025H   CODE     ---       _ATOF
      010031A8H   CODE     ---       _Delay_Some_Time
      01002399H   CODE     ---       _getNumberDisplayFloat
      01002E63H   CODE     ---       _getPriceFromMemory
      0100325FH   CODE     ---       _isspace
      010030ACH   CODE     ---       _joinCharacter
      01002F94H   CODE     ---       _key_sort
      01001F79H   CODE     ---       _PRINTF
      01003181H   CODE     ---       _PUTCHAR
      01002DE3H   CODE     ---       _SAVEPRICETOMEMORY
      01001F73H   CODE     ---       _SPRINTF
      01003236H   CODE     ---       _STRLEN
      01000E3BH   CODE     ---       _TM1640_digichk
      01002FDDH   CODE     ---       _TM1640_display
      01003126H   CODE     ---       _TM1640_Init
      01002B90H   CODE     ---       _TM1640_L_display
      01002CC7H   CODE     ---       _TM1640_M_display
      01002C37H   CODE     ---       _TM1640_U_display
      01000003H   CODE     ---       _TM1640_UM_display
      01002F54H   CODE     ---       _TM1640WriteByte
      01003155H   CODE     ---       addToInputPrice
      0200005CH   XDATA    INT       afterDecimal
      02000041H   XDATA    ---       bat_digi
      02000057H   XDATA    ---       bat_voltg
      02000033H   XDATA    ---       blank_L
      01003202H   CODE     ---       clearPrice
      0200000AH   XDATA    ---       compny_name
      02000000H   XDATA    FLOAT     currentPrice
      02000039H   XDATA    ---       digi_chk
      010030EAH   CODE     ---       displayPrice
LX51 LINKER/LOCATER V4.66.97.0                                                        10/03/2022  19:06:35  PAGE 7


      01003272H   CODE     ---       displayWeight
      02000068H   XDATA    ---       final_display
      0100328CH   CODE     ---       getWeight
      010028A2H   CODE     ---       handleModeOne
      01002A38H   CODE     ---       handleNumberInput
      02000046H   XDATA    BYTE      hi_key_no
      010026C3H   CODE     ---       initializeDisplay
      0200002AH   XDATA    ---       inputPrice
      02000008H   XDATA    INT       isDecimal
      02000031H   XDATA    INT       isOverflow
      0200005EH   XDATA    BYTE      key
      010031C8H   CODE     ---       key_display
      0100321EH   CODE     ---       Keypad_GPIO_Config
      01002ED7H   CODE     ---       ldelay
      02000047H   XDATA    BYTE      lo_key_no
      0100306DH   CODE     ---       loadMemory
      01003295H   CODE     ---       loadPricesFromMemory
      01002981H   CODE     ---       main
      02000077H   XDATA    ---       MEMORYFIVE
      0200007BH   XDATA    ---       MEMORYFOUR
      0200007FH   XDATA    ---       MEMORYONE
      02000073H   XDATA    ---       MEMORYSEVEN
      02000083H   XDATA    ---       MEMORYSIX
      0200006FH   XDATA    ---       MEMORYTHREE
      02000087H   XDATA    ---       MEMORYTWO
      02000028H   XDATA    INT       mode
      0200004DH   XDATA    ---       no_digits
      00000019H   DATA     ---       output
      0200001EH   XDATA    ---       overflowHex
      02000048H   XDATA    ---       prc
      02000066H   XDATA    INT       precision
      02000065H   XDATA    BYTE      savingTo
      0100259BH   CODE     ---       scan_keypad
      02000040H   XDATA    ---       temp
      01003281H   CODE     ---       TM1640_GPIO_Config
      010031E5H   CODE     ---       TM1640Start
      0100324BH   CODE     ---       TM1640Stop
      02000024H   XDATA    FLOAT     total
      0200005FH   XDATA    ---       ver
      02000004H   XDATA    FLOAT     weight



SYMBOL TABLE OF MODULE:  .\build\Target 1\om3 (KEYPAD)

      VALUE       REP       CLASS    TYPE      SYMBOL NAME
      ====================================================
      ---         MODULE    ---      ---       KEYPAD
      0100259BH   PUBLIC    CODE     ---       scan_keypad

      0100259BH   BLOCK     CODE     ---       LVL=0
      0100259BH   BLOCK     CODE     NEAR LAB  LVL=1
      00000006H   SYMBOL    DATA     VOID      i
      00000007H   SYMBOL    DATA     VOID      key_status
      ---         BLOCKEND  ---      ---       LVL=1
      ---         BLOCKEND  ---      ---       LVL=0

      ---         MODULE    ---      ---       OM3
      02000068H   PUBLIC    XDATA    ---       final_display
      02000066H   PUBLIC    XDATA    INT       precision
      02000065H   PUBLIC    XDATA    BYTE      savingTo
      0200005FH   PUBLIC    XDATA    ---       ver
      0200005EH   PUBLIC    XDATA    BYTE      key
      0200005CH   PUBLIC    XDATA    INT       afterDecimal
      02000057H   PUBLIC    XDATA    ---       bat_voltg
LX51 LINKER/LOCATER V4.66.97.0                                                        10/03/2022  19:06:35  PAGE 8


      0200004DH   PUBLIC    XDATA    ---       no_digits
      02000048H   PUBLIC    XDATA    ---       prc
      02000047H   PUBLIC    XDATA    BYTE      lo_key_no
      02000046H   PUBLIC    XDATA    BYTE      hi_key_no
      02000041H   PUBLIC    XDATA    ---       bat_digi
      02000040H   PUBLIC    XDATA    ---       temp
      02000039H   PUBLIC    XDATA    ---       digi_chk
      02000033H   PUBLIC    XDATA    ---       blank_L
      02000031H   PUBLIC    XDATA    INT       isOverflow
      00000019H   PUBLIC    DATA     ---       output
      0200002AH   PUBLIC    XDATA    ---       inputPrice
      02000028H   PUBLIC    XDATA    INT       mode
      02000024H   PUBLIC    XDATA    FLOAT     total
      0200001EH   PUBLIC    XDATA    ---       overflowHex
      0200000AH   PUBLIC    XDATA    ---       compny_name
      02000008H   PUBLIC    XDATA    INT       isDecimal
      02000004H   PUBLIC    XDATA    FLOAT     weight
      02000000H   PUBLIC    XDATA    FLOAT     currentPrice
      010026C3H   PUBLIC    CODE     ---       initializeDisplay
      01002F94H   PUBLIC    CODE     ---       _key_sort
      010031C8H   PUBLIC    CODE     ---       key_display
      00000026H   PUBLIC    DATA     BYTE      ?_getNumberDisplayFloat?BYTE
      01002399H   PUBLIC    CODE     ---       _getNumberDisplayFloat
      0100321EH   PUBLIC    CODE     ---       Keypad_GPIO_Config
      010030EAH   PUBLIC    CODE     ---       displayPrice
      01003155H   PUBLIC    CODE     ---       addToInputPrice
      01003202H   PUBLIC    CODE     ---       clearPrice
      010028A2H   PUBLIC    CODE     ---       handleModeOne
      01002A38H   PUBLIC    CODE     ---       handleNumberInput
      0100306DH   PUBLIC    CODE     ---       loadMemory
      01003272H   PUBLIC    CODE     ---       displayWeight
      01002981H   PUBLIC    CODE     ---       main

      01002981H   BLOCK     CODE     ---       LVL=0
      ---         BLOCKEND  ---      ---       LVL=0

      01003272H   BLOCK     CODE     ---       LVL=0
      ---         BLOCKEND  ---      ---       LVL=0

      0100306DH   BLOCK     CODE     ---       LVL=0
      0100306DH   BLOCK     CODE     NEAR LAB  LVL=1
      00000022H   SYMBOL    DATA     VOID      x
      ---         BLOCKEND  ---      ---       LVL=1
      ---         BLOCKEND  ---      ---       LVL=0

      01002A38H   BLOCK     CODE     ---       LVL=0
      ---         BLOCKEND  ---      ---       LVL=0

      010028A2H   BLOCK     CODE     ---       LVL=0
      ---         BLOCKEND  ---      ---       LVL=0

      01003202H   BLOCK     CODE     ---       LVL=0
      ---         BLOCKEND  ---      ---       LVL=0

      01003155H   BLOCK     CODE     ---       LVL=0
      ---         BLOCKEND  ---      ---       LVL=0

      010030EAH   BLOCK     CODE     ---       LVL=0
      ---         BLOCKEND  ---      ---       LVL=0

      0100321EH   BLOCK     CODE     ---       LVL=0
      ---         BLOCKEND  ---      ---       LVL=0

      01002386H   BLOCK     CODE     ---       LVL=0
      ---         BLOCKEND  ---      ---       LVL=0
LX51 LINKER/LOCATER V4.66.97.0                                                        10/03/2022  19:06:35  PAGE 9



      01002399H   BLOCK     CODE     ---       LVL=0
      010023A1H   BLOCK     CODE     NEAR LAB  LVL=1
      0000002EH   SYMBOL    DATA     VOID      value
      00000036H   SYMBOL    DATA     VOID      t
      0000003EH   SYMBOL    DATA     VOID      value_len
      00000040H   SYMBOL    DATA     VOID      set_flag
      00000042H   SYMBOL    DATA     VOID      after_display
      00000006H   SYMBOL    DATA     VOID      y
      00000044H   SYMBOL    DATA     VOID      i
      00000006H   SYMBOL    DATA     VOID      index
      00000007H   SYMBOL    DATA     VOID      a
      ---         BLOCKEND  ---      ---       LVL=1
      ---         BLOCKEND  ---      ---       LVL=0

      010031C8H   BLOCK     CODE     ---       LVL=0
      010031C8H   BLOCK     CODE     NEAR LAB  LVL=1
      0000000FH   SYMBOL    DATA     VOID      temp
      ---         BLOCKEND  ---      ---       LVL=1
      ---         BLOCKEND  ---      ---       LVL=0

      01002F94H   BLOCK     CODE     ---       LVL=0
      ---         BLOCKEND  ---      ---       LVL=0

      010026C3H   BLOCK     CODE     ---       LVL=0
      ---         BLOCKEND  ---      ---       LVL=0

      ---         MODULE    ---      ---       TM1640
      01003281H   PUBLIC    CODE     ---       TM1640_GPIO_Config
      01002B90H   PUBLIC    CODE     ---       _TM1640_L_display
      01000E3BH   PUBLIC    CODE     ---       _TM1640_digichk
      01000003H   PUBLIC    CODE     ---       _TM1640_UM_display
      01002CC7H   PUBLIC    CODE     ---       _TM1640_M_display
      01002C37H   PUBLIC    CODE     ---       _TM1640_U_display
      01002FDDH   PUBLIC    CODE     ---       _TM1640_display
      0100324BH   PUBLIC    CODE     ---       TM1640Stop
      01002F54H   PUBLIC    CODE     ---       _TM1640WriteByte
      010031E5H   PUBLIC    CODE     ---       TM1640Start
      01003126H   PUBLIC    CODE     ---       _TM1640_Init

      01003126H   BLOCK     CODE     ---       LVL=0
      ---         BLOCKEND  ---      ---       LVL=0

      010031E5H   BLOCK     CODE     ---       LVL=0
      ---         BLOCKEND  ---      ---       LVL=0

      01002F47H   BLOCK     CODE     ---       LVL=0
      ---         BLOCKEND  ---      ---       LVL=0

      01002F54H   BLOCK     CODE     ---       LVL=0
      01002F54H   BLOCK     CODE     NEAR LAB  LVL=1
      00000029H   SYMBOL    DATA     VOID      i
      0000002AH   SYMBOL    DATA     VOID      Tmp
      ---         BLOCKEND  ---      ---       LVL=1
      ---         BLOCKEND  ---      ---       LVL=0

      0100324BH   BLOCK     CODE     ---       LVL=0
      ---         BLOCKEND  ---      ---       LVL=0

      01002FDDH   BLOCK     CODE     ---       LVL=0
      01002FE3H   BLOCK     CODE     NEAR LAB  LVL=1
      00000018H   SYMBOL    DATA     VOID      i
      ---         BLOCKEND  ---      ---       LVL=1
      ---         BLOCKEND  ---      ---       LVL=0

LX51 LINKER/LOCATER V4.66.97.0                                                        10/03/2022  19:06:35  PAGE 10


      01002C37H   BLOCK     CODE     ---       LVL=0
      ---         BLOCKEND  ---      ---       LVL=0

      01002CC7H   BLOCK     CODE     ---       LVL=0
      ---         BLOCKEND  ---      ---       LVL=0

      01000003H   BLOCK     CODE     ---       LVL=0
      ---         BLOCKEND  ---      ---       LVL=0

      01000E3BH   BLOCK     CODE     ---       LVL=0
      ---         BLOCKEND  ---      ---       LVL=0

      01002B90H   BLOCK     CODE     ---       LVL=0
      ---         BLOCKEND  ---      ---       LVL=0

      01003281H   BLOCK     CODE     ---       LVL=0
      ---         BLOCKEND  ---      ---       LVL=0

      ---         MODULE    ---      ---       UTILITY
      00000022H   PUBLIC    DATA     BYTE      ?_joinCharacter?BYTE
      010030ACH   PUBLIC    CODE     ---       _joinCharacter
      010031A8H   PUBLIC    CODE     ---       _Delay_Some_Time
      01002ED7H   PUBLIC    CODE     ---       ldelay

      01002ED7H   BLOCK     CODE     ---       LVL=0
      01002ED7H   BLOCK     CODE     NEAR LAB  LVL=1
      00000022H   SYMBOL    DATA     VOID      i
      00000026H   SYMBOL    DATA     VOID      j
      ---         BLOCKEND  ---      ---       LVL=1
      ---         BLOCKEND  ---      ---       LVL=0

      010031A8H   BLOCK     CODE     ---       LVL=0
      010031A8H   BLOCK     CODE     NEAR LAB  LVL=1
      00000004H   SYMBOL    DATA     VOID      i
      00000002H   SYMBOL    DATA     VOID      j
      ---         BLOCKEND  ---      ---       LVL=1
      ---         BLOCKEND  ---      ---       LVL=0

      010030ACH   BLOCK     CODE     ---       LVL=0
      010030B2H   BLOCK     CODE     NEAR LAB  LVL=1
      00000006H   SYMBOL    DATA     VOID      i
      ---         BLOCKEND  ---      ---       LVL=1
      ---         BLOCKEND  ---      ---       LVL=0

      ---         MODULE    ---      ---       WEIGHT
      0100328CH   PUBLIC    CODE     ---       getWeight

      0100328CH   BLOCK     CODE     ---       LVL=0
      ---         BLOCKEND  ---      ---       LVL=0

      ---         MODULE    ---      ---       MEMORY
      00000008H   PUBLIC    DATA     ---       ?_SAVEPRICETOMEMORY?BYTE
      01003295H   PUBLIC    CODE     ---       LOADPRICESFROMMEMORY
      02000077H   PUBLIC    XDATA    ---       MEMORYFIVE
      0200007BH   PUBLIC    XDATA    ---       MEMORYFOUR
      0200007FH   PUBLIC    XDATA    ---       MEMORYONE
      02000073H   PUBLIC    XDATA    ---       MEMORYSEVEN
      02000083H   PUBLIC    XDATA    ---       MEMORYSIX
      0200006FH   PUBLIC    XDATA    ---       MEMORYTHREE
      02000087H   PUBLIC    XDATA    ---       MEMORYTWO
      01002E63H   PUBLIC    CODE     ---       _GETPRICEFROMMEMORY
      01002DE3H   PUBLIC    CODE     ---       _SAVEPRICETOMEMORY

      ---         MODULE    ---      ---       ?C?FPMUL
      010018A1H   PUBLIC    CODE     ---       ?C?FPMUL
LX51 LINKER/LOCATER V4.66.97.0                                                        10/03/2022  19:06:35  PAGE 11



      ---         MODULE    ---      ---       ?C?FPCMP
      010019A9H   PUBLIC    CODE     ---       ?C?FPCMP
      010019A7H   PUBLIC    CODE     ---       ?C?FPCMP3

      ---         MODULE    ---      ---       PRINTF
      00000046H   PUBLIC    DATA     ---       ?_PRINTF?BYTE
      00000046H   PUBLIC    DATA     ---       ?_SPRINTF?BYTE
      01001F79H   PUBLIC    CODE     ---       _PRINTF
      01001F73H   PUBLIC    CODE     ---       _SPRINTF

      ---         MODULE    ---      ---       ATOF
      01003025H   PUBLIC    CODE     ---       _ATOF

      ---         MODULE    ---      ---       ?C?FPGETOPN
      01001A20H   PUBLIC    CODE     ---       ?C?FPGETOPN2
      01001A55H   PUBLIC    CODE     ---       ?C?FPNANRESULT
      01001A5FH   PUBLIC    CODE     ---       ?C?FPOVERFLOW
      01001A37H   PUBLIC    CODE     ---       ?C?FPRESULT
      01001A4BH   PUBLIC    CODE     ---       ?C?FPRESULT2
      01001A5CH   PUBLIC    CODE     ---       ?C?FPUNDERFLOW

      ---         MODULE    ---      ---       ?C?FPROUND
      01001A6AH   PUBLIC    CODE     ---       ?C?FPROUND

      ---         MODULE    ---      ---       ?C?FPCONVERT
      01001A99H   PUBLIC    CODE     ---       ?C?FPCONVERT

      ---         MODULE    ---      ---       ?C?ATOF
      00000020H.0 PUBLIC    BIT      ---       ?C?ATOFFIRSTCALL
      010027CFH   PUBLIC    CODE     ---       ?C?FPATOF

      ---         MODULE    ---      ---       ?C?FPADD
      01001BA3H   PUBLIC    CODE     ---       ?C?FPADD
      01001B9FH   PUBLIC    CODE     ---       ?C?FPSUB

      ---         MODULE    ---      ---       ?C?FPDIV
      01001C97H   PUBLIC    CODE     ---       ?C?FPDIV

      ---         MODULE    ---      ---       ?C?FPNEG
      01001D34H   PUBLIC    CODE     ---       ?C?FPNEG

      ---         MODULE    ---      ---       ?C?FCAST
      01001D4FH   PUBLIC    CODE     ---       ?C?FCASTC
      01001D4AH   PUBLIC    CODE     ---       ?C?FCASTI
      01001D45H   PUBLIC    CODE     ---       ?C?FCASTL

      ---         MODULE    ---      ---       ?C?FTNPWR
      01001DB3H   PUBLIC    CODE     ---       ?C?FTNPWR

      ---         MODULE    ---      ---       ?C_STARTUP
      01000000H   PUBLIC    CODE     ---       ?C_STARTUP

      ---         MODULE    ---      ---       ?C?CLDPTR
      01001DF3H   PUBLIC    CODE     ---       ?C?CLDPTR

      ---         MODULE    ---      ---       ?C?CLDOPTR
      01001E0CH   PUBLIC    CODE     ---       ?C?CLDOPTR

      ---         MODULE    ---      ---       ?C?CSTPTR
      01001E39H   PUBLIC    CODE     ---       ?C?CSTPTR

      ---         MODULE    ---      ---       ?C?CSTOPTR
      01001E4BH   PUBLIC    CODE     ---       ?C?CSTOPTR

LX51 LINKER/LOCATER V4.66.97.0                                                        10/03/2022  19:06:35  PAGE 12


      ---         MODULE    ---      ---       ?C?LNEG
      01001E6DH   PUBLIC    CODE     ---       ?C?LNEG

      ---         MODULE    ---      ---       ?C?ULCMP
      01001E7BH   PUBLIC    CODE     ---       ?C?ULCMP

      ---         MODULE    ---      ---       ?C?LLDXDATA
      01001E8CH   PUBLIC    CODE     ---       ?C?LLDXDATA

      ---         MODULE    ---      ---       ?C?LLDXDATA0
      01001E98H   PUBLIC    CODE     ---       ?C?LLDXDATA0

      ---         MODULE    ---      ---       ?C?LSTXDATA
      01001EA4H   PUBLIC    CODE     ---       ?C?LSTXDATA

      ---         MODULE    ---      ---       ?C?LSTKXDATA
      01001EB0H   PUBLIC    CODE     ---       ?C?LSTKXDATA

      ---         MODULE    ---      ---       ?C?PLDIIDATA
      01001EE1H   PUBLIC    CODE     ---       ?C?PLDIIDATA

      ---         MODULE    ---      ---       ?C?CCASE
      01001EF1H   PUBLIC    CODE     ---       ?C?CCASE

      ---         MODULE    ---      ---       PUTCHAR
      01003181H   PUBLIC    CODE     ---       _PUTCHAR

      ---         MODULE    ---      ---       ISSPACE
      0100325FH   PUBLIC    CODE     ---       _ISSPACE

      ---         MODULE    ---      ---       STRLEN
      01003236H   PUBLIC    CODE     ---       _STRLEN

      ---         MODULE    ---      ---       ?C_INIT
      01002D9EH   PUBLIC    CODE     ---       ?C_START



*** WARNING L57: UNCALLED FUNCTION, IGNORED FOR OVERLAY PROCESS
    NAME:    KEY_DISPLAY/OM3

*** WARNING L57: UNCALLED FUNCTION, IGNORED FOR OVERLAY PROCESS
    NAME:    _KEY_SORT/OM3

*** WARNING L57: UNCALLED FUNCTION, IGNORED FOR OVERLAY PROCESS
    NAME:    _TM1640_DISPLAY/TM1640

*** WARNING L16: UNCALLED SEGMENT, IGNORED FOR OVERLAY PROCESS
    NAME:    _SAVEPRICETOMEMORY/MEMORY

Program Size: data=94.1 xdata=139 const=20 code=12950
LX51 RUN COMPLETE.  4 WARNING(S),  0 ERROR(S)
