C51 COMPILER V9.60.0.0   TM1640                                                            10/03/2022 19:06:34 PAGE 1   


C51 COMPILER V9.60.0.0, COMPILATION OF MODULE TM1640
OBJECT MODULE PLACED IN .\build\Target 1\tm1640.o
COMPILER INVOKED BY: C:\Keil_v5\C51\BIN\C51.exe .\TM1640.C OMF2 TABS(4) CODE NOCOND SYMBOLS PRINT(.\build\Target 1\tm164
                    -0.lst) INCDIR(../../../../../../Keil_v5/C51/INC) DEFINE(__UVISION_VERSION=526) OPTIMIZE(8,SIZE) SMALL ROM(LARGE) OBJECT(
                    -.\build\Target 1\tm1640.o)

line level    source

   1          //
   2          // Created by aditya on 28-08-2022.
   3          //
   4          #include "REG_MG82FG5Bxx.h"
   5          #include "macro.h"
   6          #include "tm1640.h"
   7          #include "utility.h"
   8          
   9          void TM1640_Init(unsigned char InValue)
  10          {
  11   1          //GPIO_WriteHigh(GPIO4,GPIO_PIN_1);         //P41 write high DIN
  12   1          GPIO_write_DIN_high();
  13   1          Delay_Some_Time(1);
  14   1          //GPIO_WriteHigh(GPIO4,GPIO_PIN_0);         //P40 write high SCLK
  15   1          GPIO_write_SCLK_high();
  16   1      
  17   1          if(InValue == DSPTM1640_DIS) //Show off
  18   1          {
  19   2              TM1640Start();//Data write mode setting
  20   2              TM1640WriteByte(DSP1640_DIS);//Display off control
  21   2              TM1640Stop();
  22   2          }
  23   1          else
  24   1          {
  25   2              TM1640Start();//Data write mode setting
  26   2              TM1640WriteByte(TM1640_FIEXD);//Data command setting address                automatically   increases by 1
  27   2              TM1640Stop();
  28   2              TM1640Start(); //Display brightness setting
  29   2              TM1640WriteByte(TM1640_DISPLAY); //Display command control pulse width          14/16
  30   2              TM1640Stop();
  31   2          }
  32   1      }
  33          
  34          void TM1640Start(void)
  35          {
  36   1          //GPIO_WriteHigh(GPIO4,GPIO_PIN_1);         //P41 write high DIN
  37   1          GPIO_write_DIN_high();
  38   1          //GPIO_WriteHigh(GPIO4,GPIO_PIN_0);         //P40 write high SCLK
  39   1          GPIO_write_SCLK_high();
  40   1          Delay_Some_Time(1);
  41   1          //GPIO_WriteLow(GPIO4,GPIO_PIN_1);     //p41 low level DIN
  42   1          GPIO_write_DIN_low();
  43   1          Delay_Some_Time(1);
  44   1          //GPIO_WriteLow(GPIO4,GPIO_PIN_1);     //p40 low level SCLK
  45   1          GPIO_write_SCLK_low();
  46   1          Delay_Some_Time(1);
  47   1      }
  48          
  49          void TM1640WriteByte(unsigned char  date)
  50          {
  51   1          unsigned char i;
  52   1          unsigned char  Tmp;
  53   1          Tmp=date;
C51 COMPILER V9.60.0.0   TM1640                                                            10/03/2022 19:06:34 PAGE 2   

  54   1          //GPIO_WriteLow(GPIO4,GPIO_PIN_1);     //p41 low level DIN
  55   1          GPIO_write_DIN_low();
  56   1          //GPIO_WriteLow(GPIO4,GPIO_PIN_0);     //p40 low level SCLK
  57   1          GPIO_write_SCLK_low();
  58   1          for(i=0;i<8;i++)
  59   1          {
  60   2              //GPIO_WriteLow(GPIO4,GPIO_PIN_0);     //p40 low level SCLK
  61   2              GPIO_write_SCLK_low();
  62   2              Delay_Some_Time(1);
  63   2              if(Tmp&0x01)
  64   2              {
  65   3                  //GPIO_WriteHigh(GPIO4,GPIO_PIN_1);         //P41 write high DIN
  66   3                  GPIO_write_DIN_high();
  67   3                  Delay_Some_Time(1);
  68   3              }
  69   2              else
  70   2              {
  71   3                  //GPIO_WriteLow(GPIO4,GPIO_PIN_1);     //p41 low level DIN
  72   3                  GPIO_write_DIN_low();
  73   3                  Delay_Some_Time(1);
  74   3              }
  75   2              //GPIO_WriteHigh(GPIO4,GPIO_PIN_0);         //P40 write high SCLK
  76   2              GPIO_write_SCLK_high();
  77   2              Tmp = Tmp>>1;
  78   2          }
  79   1          //GPIO_WriteLow(GPIO4,GPIO_PIN_0);     //p40 low level SCLK
  80   1          GPIO_write_SCLK_low();
  81   1          //GPIO_WriteLow(GPIO4,GPIO_PIN_1);     //p41 low level DIN
  82   1          GPIO_write_DIN_low();
  83   1      }
  84          
  85          void TM1640Stop(void)
  86          {
  87   1          //GPIO_WriteLow(GPIO4,GPIO_PIN_1);     //p41 low level DIN
  88   1          GPIO_write_DIN_low();
  89   1          //GPIO_WriteHigh(GPIO4,GPIO_PIN_0);         //P40 write high SCLK
  90   1          GPIO_write_SCLK_high();
  91   1          Delay_Some_Time(1);
  92   1          //GPIO_WriteHigh(GPIO4,GPIO_PIN_1);
  93   1          GPIO_write_DIN_high();
  94   1          Delay_Some_Time(1);
  95   1      }
  96          
  97          void TM1640_display(unsigned char *no_digits)
  98          {
  99   1          unsigned char  i;
 100   1          TM1640Start();
 101   1          TM1640WriteByte(0x44); //Set the starting address
 102   1          TM1640Stop();
 103   1          TM1640Start();
 104   1          TM1640WriteByte(0xcd);
 105   1          for(i=0;i<1;i++)
 106   1          {
 107   2              TM1640WriteByte(no_digits[i]);
 108   2          }
 109   1          TM1640Stop();
 110   1          TM1640Start();
 111   1          TM1640WriteByte(0x8b); //Set the starting address
 112   1          TM1640Stop();
 113   1      }
 114          
 115          void TM1640_U_display(unsigned char *utemp)
C51 COMPILER V9.60.0.0   TM1640                                                            10/03/2022 19:06:34 PAGE 3   

 116          {
 117   1      
 118   1          TM1640Start();
 119   1          TM1640WriteByte(0x44); //Set the starting address
 120   1          TM1640Stop();
 121   1          TM1640Start();
 122   1          TM1640WriteByte(0xc5);
 123   1          TM1640WriteByte(utemp[0]);
 124   1          TM1640Stop();
 125   1          TM1640Start();
 126   1          TM1640WriteByte(0xc8);
 127   1          TM1640WriteByte(utemp[1]);
 128   1          TM1640Stop();
 129   1          TM1640Start();
 130   1          TM1640WriteByte(0xc7);
 131   1          TM1640WriteByte(utemp[2]);
 132   1          TM1640Stop();
 133   1          TM1640Start();
 134   1          TM1640WriteByte(0xca);
 135   1          TM1640WriteByte(utemp[3]);
 136   1          TM1640Stop();
 137   1          TM1640Start();
 138   1          TM1640WriteByte(0xc9);
 139   1          TM1640WriteByte(utemp[4]);
 140   1          TM1640Stop();
 141   1          TM1640Start();
 142   1          TM1640WriteByte(0x8b); //Set the starting address
 143   1          TM1640Stop();
 144   1      }
 145          
 146          void TM1640_M_display(unsigned char *mtemp)
 147          {
 148   1      
 149   1          TM1640Start();
 150   1          TM1640WriteByte(0x44); //Set the starting address
 151   1          TM1640Stop();
 152   1          TM1640Start();
 153   1          TM1640WriteByte(0xcb);
 154   1          TM1640WriteByte(mtemp[0]);
 155   1          TM1640Stop();
 156   1          TM1640Start();
 157   1          TM1640WriteByte(0xc1);
 158   1          TM1640WriteByte(mtemp[1]);
 159   1          TM1640Stop();
 160   1          TM1640Start();
 161   1          TM1640WriteByte(0xc4);
 162   1          TM1640WriteByte(mtemp[2]);
 163   1          TM1640Stop();
 164   1          TM1640Start();
 165   1          TM1640WriteByte(0xc3);
 166   1          TM1640WriteByte(mtemp[3]);
 167   1          TM1640Stop();
 168   1          TM1640Start();
 169   1          TM1640WriteByte(0xc6);
 170   1          TM1640WriteByte(mtemp[4]);
 171   1          TM1640Stop();
 172   1          TM1640Start();
 173   1          TM1640WriteByte(0x8b); //Set the starting address
 174   1          TM1640Stop();
 175   1      }
 176          
 177          void TM1640_UM_display(unsigned char *co_name)
C51 COMPILER V9.60.0.0   TM1640                                                            10/03/2022 19:06:34 PAGE 4   

 178          {
 179   1          TM1640Start();
 180   1          TM1640WriteByte(0x44); //Set the starting address
 181   1          TM1640Stop();
 182   1      
 183   1          TM1640Start();
 184   1          TM1640WriteByte(0xcb);
 185   1          TM1640WriteByte(co_name[0]);
 186   1          TM1640Stop();
 187   1          Delay_Some_Time(100);
 188   1      
 189   1          TM1640Start();
 190   1          TM1640WriteByte(0xcb);
 191   1          TM1640WriteByte(co_name[1]);
 192   1          TM1640Stop();
 193   1          TM1640Start();
 194   1          TM1640WriteByte(0xc1);
 195   1          TM1640WriteByte(co_name[0]);
 196   1          TM1640Stop();
 197   1          Delay_Some_Time(100);
 198   1      
 199   1          TM1640Start();
 200   1          TM1640WriteByte(0xcb);
 201   1          TM1640WriteByte(co_name[2]);
 202   1          TM1640Stop();
 203   1          TM1640Start();
 204   1          TM1640WriteByte(0xc1);
 205   1          TM1640WriteByte(co_name[1]);
 206   1          TM1640Stop();
 207   1          TM1640Start();
 208   1          TM1640WriteByte(0xc4);
 209   1          TM1640WriteByte(co_name[0]);
 210   1          TM1640Stop();
 211   1          Delay_Some_Time(100);
 212   1      
 213   1          TM1640Start();
 214   1          TM1640WriteByte(0xcb);
 215   1          TM1640WriteByte(co_name[3]);
 216   1          TM1640Stop();
 217   1          TM1640Start();
 218   1          TM1640WriteByte(0xc1);
 219   1          TM1640WriteByte(co_name[2]);
 220   1          TM1640Stop();
 221   1          TM1640Start();
 222   1          TM1640WriteByte(0xc4);
 223   1          TM1640WriteByte(co_name[1]);
 224   1          TM1640Stop();
 225   1          TM1640Start();
 226   1          TM1640WriteByte(0xc3);
 227   1          TM1640WriteByte(co_name[0]);
 228   1          TM1640Stop();
 229   1          Delay_Some_Time(100);
 230   1      
 231   1          TM1640Start();
 232   1          TM1640WriteByte(0xcb);
 233   1          TM1640WriteByte(co_name[4]);
 234   1          TM1640Stop();
 235   1          TM1640Start();
 236   1          TM1640WriteByte(0xc1);
 237   1          TM1640WriteByte(co_name[3]);
 238   1          TM1640Stop();
 239   1          TM1640Start();
C51 COMPILER V9.60.0.0   TM1640                                                            10/03/2022 19:06:34 PAGE 5   

 240   1          TM1640WriteByte(0xc4);
 241   1          TM1640WriteByte(co_name[2]);
 242   1          TM1640Stop();
 243   1          TM1640Start();
 244   1          TM1640WriteByte(0xc3);
 245   1          TM1640WriteByte(co_name[1]);
 246   1          TM1640Stop();
 247   1          TM1640Start();
 248   1          TM1640WriteByte(0xc6);
 249   1          TM1640WriteByte(co_name[0]);
 250   1          TM1640Stop();
 251   1          Delay_Some_Time(100);
 252   1      
 253   1          TM1640Start();
 254   1          TM1640WriteByte(0xcb);
 255   1          TM1640WriteByte(co_name[5]);
 256   1          TM1640Stop();
 257   1          TM1640Start();
 258   1          TM1640WriteByte(0xc1);
 259   1          TM1640WriteByte(co_name[4]);
 260   1          TM1640Stop();
 261   1          TM1640Start();
 262   1          TM1640WriteByte(0xc4);
 263   1          TM1640WriteByte(co_name[3]);
 264   1          TM1640Stop();
 265   1          TM1640Start();
 266   1          TM1640WriteByte(0xc3);
 267   1          TM1640WriteByte(co_name[2]);
 268   1          TM1640Stop();
 269   1          TM1640Start();
 270   1          TM1640WriteByte(0xc6);
 271   1          TM1640WriteByte(co_name[1]);
 272   1          TM1640Stop();
 273   1          TM1640Start();
 274   1          TM1640WriteByte(0xc5);
 275   1          TM1640WriteByte(co_name[0]);
 276   1          TM1640Stop();
 277   1          Delay_Some_Time(100);
 278   1      
 279   1          TM1640Start();
 280   1          TM1640WriteByte(0xcb);
 281   1          TM1640WriteByte(co_name[6]);
 282   1          TM1640Stop();
 283   1          TM1640Start();
 284   1          TM1640WriteByte(0xc1);
 285   1          TM1640WriteByte(co_name[5]);
 286   1          TM1640Stop();
 287   1          TM1640Start();
 288   1          TM1640WriteByte(0xc4);
 289   1          TM1640WriteByte(co_name[4]);
 290   1          TM1640Stop();
 291   1          TM1640Start();
 292   1          TM1640WriteByte(0xc3);
 293   1          TM1640WriteByte(co_name[3]);
 294   1          TM1640Stop();
 295   1          TM1640Start();
 296   1          TM1640WriteByte(0xc6);
 297   1          TM1640WriteByte(co_name[2]);
 298   1          TM1640Stop();
 299   1          TM1640Start();
 300   1          TM1640WriteByte(0xc5);
 301   1          TM1640WriteByte(co_name[1]);
C51 COMPILER V9.60.0.0   TM1640                                                            10/03/2022 19:06:34 PAGE 6   

 302   1          TM1640Stop();
 303   1          TM1640Start();
 304   1          TM1640WriteByte(0xc8);
 305   1          TM1640WriteByte(co_name[0]);
 306   1          TM1640Stop();
 307   1          Delay_Some_Time(100);
 308   1      
 309   1          TM1640Start();
 310   1          TM1640WriteByte(0xcb);
 311   1          TM1640WriteByte(co_name[7]);
 312   1          TM1640Stop();
 313   1          TM1640Start();
 314   1          TM1640WriteByte(0xc1);
 315   1          TM1640WriteByte(co_name[6]);
 316   1          TM1640Stop();
 317   1          TM1640Start();
 318   1          TM1640WriteByte(0xc4);
 319   1          TM1640WriteByte(co_name[5]);
 320   1          TM1640Stop();
 321   1          TM1640Start();
 322   1          TM1640WriteByte(0xc3);
 323   1          TM1640WriteByte(co_name[4]);
 324   1          TM1640Stop();
 325   1          TM1640Start();
 326   1          TM1640WriteByte(0xc6);
 327   1          TM1640WriteByte(co_name[3]);
 328   1          TM1640Stop();
 329   1          TM1640Start();
 330   1          TM1640WriteByte(0xc5);
 331   1          TM1640WriteByte(co_name[2]);
 332   1          TM1640Stop();
 333   1          TM1640Start();
 334   1          TM1640WriteByte(0xc8);
 335   1          TM1640WriteByte(co_name[1]);
 336   1          TM1640Stop();
 337   1          TM1640Start();
 338   1          TM1640WriteByte(0xc7);
 339   1          TM1640WriteByte(co_name[0]);
 340   1          TM1640Stop();
 341   1          Delay_Some_Time(100);
 342   1      
 343   1          TM1640Start();
 344   1          TM1640WriteByte(0xcb);
 345   1          TM1640WriteByte(co_name[8]);
 346   1          TM1640Stop();
 347   1          TM1640Start();
 348   1          TM1640WriteByte(0xc1);
 349   1          TM1640WriteByte(co_name[7]);
 350   1          TM1640Stop();
 351   1          TM1640Start();
 352   1          TM1640WriteByte(0xc4);
 353   1          TM1640WriteByte(co_name[6]);
 354   1          TM1640Stop();
 355   1          TM1640Start();
 356   1          TM1640WriteByte(0xc3);
 357   1          TM1640WriteByte(co_name[5]);
 358   1          TM1640Stop();
 359   1          TM1640Start();
 360   1          TM1640WriteByte(0xc6);
 361   1          TM1640WriteByte(co_name[4]);
 362   1          TM1640Stop();
 363   1          TM1640Start();
C51 COMPILER V9.60.0.0   TM1640                                                            10/03/2022 19:06:34 PAGE 7   

 364   1          TM1640WriteByte(0xc5);
 365   1          TM1640WriteByte(co_name[3]);
 366   1          TM1640Stop();
 367   1          TM1640Start();
 368   1          TM1640WriteByte(0xc8);
 369   1          TM1640WriteByte(co_name[2]);
 370   1          TM1640Stop();
 371   1          TM1640Start();
 372   1          TM1640WriteByte(0xc7);
 373   1          TM1640WriteByte(co_name[1]);
 374   1          TM1640Stop();
 375   1          TM1640Start();
 376   1          TM1640WriteByte(0xca);
 377   1          TM1640WriteByte(co_name[0]);
 378   1          TM1640Stop();
 379   1          Delay_Some_Time(100);
 380   1      
 381   1          TM1640Start();
 382   1          TM1640WriteByte(0xcb);
 383   1          TM1640WriteByte(co_name[9]);
 384   1          TM1640Stop();
 385   1          TM1640Start();
 386   1          TM1640WriteByte(0xc1);
 387   1          TM1640WriteByte(co_name[8]);
 388   1          TM1640Stop();
 389   1          TM1640Start();
 390   1          TM1640WriteByte(0xc4);
 391   1          TM1640WriteByte(co_name[7]);
 392   1          TM1640Stop();
 393   1          TM1640Start();
 394   1          TM1640WriteByte(0xc3);
 395   1          TM1640WriteByte(co_name[6]);
 396   1          TM1640Stop();
 397   1          TM1640Start();
 398   1          TM1640WriteByte(0xc6);
 399   1          TM1640WriteByte(co_name[5]);
 400   1          TM1640Stop();
 401   1          TM1640Start();
 402   1          TM1640WriteByte(0xc5);
 403   1          TM1640WriteByte(co_name[4]);
 404   1          TM1640Stop();
 405   1          TM1640Start();
 406   1          TM1640WriteByte(0xc8);
 407   1          TM1640WriteByte(co_name[3]);
 408   1          TM1640Stop();
 409   1          TM1640Start();
 410   1          TM1640WriteByte(0xc7);
 411   1          TM1640WriteByte(co_name[2]);
 412   1          TM1640Stop();
 413   1          TM1640Start();
 414   1          TM1640WriteByte(0xca);
 415   1          TM1640WriteByte(co_name[1]);
 416   1          TM1640Stop();
 417   1          TM1640Start();
 418   1          TM1640WriteByte(0xc9);
 419   1          TM1640WriteByte(co_name[0]);
 420   1          TM1640Stop();
 421   1          //TM1640Start();
 422   1          //TM1640WriteByte(0x8b); //Set the starting address
 423   1          //TM1640Stop();
 424   1          Delay_Some_Time(100);
 425   1      
C51 COMPILER V9.60.0.0   TM1640                                                            10/03/2022 19:06:34 PAGE 8   

 426   1          TM1640Start();
 427   1          TM1640WriteByte(0xcb);
 428   1          TM1640WriteByte(co_name[10]);
 429   1          TM1640Stop();
 430   1          TM1640Start();
 431   1          TM1640WriteByte(0xc1);
 432   1          TM1640WriteByte(co_name[9]);
 433   1          TM1640Stop();
 434   1          TM1640Start();
 435   1          TM1640WriteByte(0xc4);
 436   1          TM1640WriteByte(co_name[8]);
 437   1          TM1640Stop();
 438   1          TM1640Start();
 439   1          TM1640WriteByte(0xc3);
 440   1          TM1640WriteByte(co_name[7]);
 441   1          TM1640Stop();
 442   1          TM1640Start();
 443   1          TM1640WriteByte(0xc6);
 444   1          TM1640WriteByte(co_name[6]);
 445   1          TM1640Stop();
 446   1          TM1640Start();
 447   1          TM1640WriteByte(0xc5);
 448   1          TM1640WriteByte(co_name[5]);
 449   1          TM1640Stop();
 450   1          TM1640Start();
 451   1          TM1640WriteByte(0xc8);
 452   1          TM1640WriteByte(co_name[4]);
 453   1          TM1640Stop();
 454   1          TM1640Start();
 455   1          TM1640WriteByte(0xc7);
 456   1          TM1640WriteByte(co_name[3]);
 457   1          TM1640Stop();
 458   1          TM1640Start();
 459   1          TM1640WriteByte(0xca);
 460   1          TM1640WriteByte(co_name[2]);
 461   1          TM1640Stop();
 462   1          TM1640Start();
 463   1          TM1640WriteByte(0xc9);
 464   1          TM1640WriteByte(co_name[1]);
 465   1          TM1640Stop();
 466   1          //TM1640Start();
 467   1          //TM1640WriteByte(0x8b); //Set the starting address
 468   1          //TM1640Stop();
 469   1          Delay_Some_Time(100);
 470   1      
 471   1          TM1640Start();
 472   1          TM1640WriteByte(0xcb);
 473   1          TM1640WriteByte(co_name[11]);
 474   1          TM1640Stop();
 475   1          TM1640Start();
 476   1          TM1640WriteByte(0xc1);
 477   1          TM1640WriteByte(co_name[10]);
 478   1          TM1640Stop();
 479   1          TM1640Start();
 480   1          TM1640WriteByte(0xc4);
 481   1          TM1640WriteByte(co_name[9]);
 482   1          TM1640Stop();
 483   1          TM1640Start();
 484   1          TM1640WriteByte(0xc3);
 485   1          TM1640WriteByte(co_name[8]);
 486   1          TM1640Stop();
 487   1          TM1640Start();
C51 COMPILER V9.60.0.0   TM1640                                                            10/03/2022 19:06:34 PAGE 9   

 488   1          TM1640WriteByte(0xc6);
 489   1          TM1640WriteByte(co_name[7]);
 490   1          TM1640Stop();
 491   1          TM1640Start();
 492   1          TM1640WriteByte(0xc5);
 493   1          TM1640WriteByte(co_name[6]);
 494   1          TM1640Stop();
 495   1          TM1640Start();
 496   1          TM1640WriteByte(0xc8);
 497   1          TM1640WriteByte(co_name[5]);
 498   1          TM1640Stop();
 499   1          TM1640Start();
 500   1          TM1640WriteByte(0xc7);
 501   1          TM1640WriteByte(co_name[4]);
 502   1          TM1640Stop();
 503   1          TM1640Start();
 504   1          TM1640WriteByte(0xca);
 505   1          TM1640WriteByte(co_name[3]);
 506   1          TM1640Stop();
 507   1          TM1640Start();
 508   1          TM1640WriteByte(0xc9);
 509   1          TM1640WriteByte(co_name[2]);
 510   1          TM1640Stop();
 511   1          //TM1640Start();
 512   1          //TM1640WriteByte(0x8b); //Set the starting address
 513   1          //TM1640Stop();
 514   1          Delay_Some_Time(100);
 515   1      
 516   1          TM1640Start();
 517   1          TM1640WriteByte(0xcb);
 518   1          TM1640WriteByte(co_name[12]);
 519   1          TM1640Stop();
 520   1          TM1640Start();
 521   1          TM1640WriteByte(0xc1);
 522   1          TM1640WriteByte(co_name[11]);
 523   1          TM1640Stop();
 524   1          TM1640Start();
 525   1          TM1640WriteByte(0xc4);
 526   1          TM1640WriteByte(co_name[10]);
 527   1          TM1640Stop();
 528   1          TM1640Start();
 529   1          TM1640WriteByte(0xc3);
 530   1          TM1640WriteByte(co_name[9]);
 531   1          TM1640Stop();
 532   1          TM1640Start();
 533   1          TM1640WriteByte(0xc6);
 534   1          TM1640WriteByte(co_name[8]);
 535   1          TM1640Stop();
 536   1          TM1640Start();
 537   1          TM1640WriteByte(0xc5);
 538   1          TM1640WriteByte(co_name[7]);
 539   1          TM1640Stop();
 540   1          TM1640Start();
 541   1          TM1640WriteByte(0xc8);
 542   1          TM1640WriteByte(co_name[6]);
 543   1          TM1640Stop();
 544   1          TM1640Start();
 545   1          TM1640WriteByte(0xc7);
 546   1          TM1640WriteByte(co_name[5]);
 547   1          TM1640Stop();
 548   1          TM1640Start();
 549   1          TM1640WriteByte(0xca);
C51 COMPILER V9.60.0.0   TM1640                                                            10/03/2022 19:06:34 PAGE 10  

 550   1          TM1640WriteByte(co_name[4]);
 551   1          TM1640Stop();
 552   1          TM1640Start();
 553   1          TM1640WriteByte(0xc9);
 554   1          TM1640WriteByte(co_name[3]);
 555   1          TM1640Stop();
 556   1          //TM1640Start();
 557   1          //TM1640WriteByte(0x8b); //Set the starting address
 558   1          //TM1640Stop();
 559   1          Delay_Some_Time(100);
 560   1      
 561   1          TM1640Start();
 562   1          TM1640WriteByte(0xcb);
 563   1          TM1640WriteByte(co_name[13]);
 564   1          TM1640Stop();
 565   1          TM1640Start();
 566   1          TM1640WriteByte(0xc1);
 567   1          TM1640WriteByte(co_name[12]);
 568   1          TM1640Stop();
 569   1          TM1640Start();
 570   1          TM1640WriteByte(0xc4);
 571   1          TM1640WriteByte(co_name[11]);
 572   1          TM1640Stop();
 573   1          TM1640Start();
 574   1          TM1640WriteByte(0xc3);
 575   1          TM1640WriteByte(co_name[10]);
 576   1          TM1640Stop();
 577   1          TM1640Start();
 578   1          TM1640WriteByte(0xc6);
 579   1          TM1640WriteByte(co_name[9]);
 580   1          TM1640Stop();
 581   1          TM1640Start();
 582   1          TM1640WriteByte(0xc5);
 583   1          TM1640WriteByte(co_name[8]);
 584   1          TM1640Stop();
 585   1          TM1640Start();
 586   1          TM1640WriteByte(0xc8);
 587   1          TM1640WriteByte(co_name[7]);
 588   1          TM1640Stop();
 589   1          TM1640Start();
 590   1          TM1640WriteByte(0xc7);
 591   1          TM1640WriteByte(co_name[6]);
 592   1          TM1640Stop();
 593   1          TM1640Start();
 594   1          TM1640WriteByte(0xca);
 595   1          TM1640WriteByte(co_name[5]);
 596   1          TM1640Stop();
 597   1          TM1640Start();
 598   1          TM1640WriteByte(0xc9);
 599   1          TM1640WriteByte(co_name[4]);
 600   1          TM1640Stop();
 601   1          //TM1640Start();
 602   1          //TM1640WriteByte(0x8b); //Set the starting address
 603   1          //TM1640Stop();
 604   1          Delay_Some_Time(100);
 605   1      
 606   1          TM1640Start();
 607   1          TM1640WriteByte(0xcb);
 608   1          TM1640WriteByte(co_name[14]);
 609   1          TM1640Stop();
 610   1          TM1640Start();
 611   1          TM1640WriteByte(0xc1);
C51 COMPILER V9.60.0.0   TM1640                                                            10/03/2022 19:06:34 PAGE 11  

 612   1          TM1640WriteByte(co_name[13]);
 613   1          TM1640Stop();
 614   1          TM1640Start();
 615   1          TM1640WriteByte(0xc4);
 616   1          TM1640WriteByte(co_name[12]);
 617   1          TM1640Stop();
 618   1          TM1640Start();
 619   1          TM1640WriteByte(0xc3);
 620   1          TM1640WriteByte(co_name[11]);
 621   1          TM1640Stop();
 622   1          TM1640Start();
 623   1          TM1640WriteByte(0xc6);
 624   1          TM1640WriteByte(co_name[10]);
 625   1          TM1640Stop();
 626   1          TM1640Start();
 627   1          TM1640WriteByte(0xc5);
 628   1          TM1640WriteByte(co_name[9]);
 629   1          TM1640Stop();
 630   1          TM1640Start();
 631   1          TM1640WriteByte(0xc8);
 632   1          TM1640WriteByte(co_name[8]);
 633   1          TM1640Stop();
 634   1          TM1640Start();
 635   1          TM1640WriteByte(0xc7);
 636   1          TM1640WriteByte(co_name[7]);
 637   1          TM1640Stop();
 638   1          TM1640Start();
 639   1          TM1640WriteByte(0xca);
 640   1          TM1640WriteByte(co_name[6]);
 641   1          TM1640Stop();
 642   1          TM1640Start();
 643   1          TM1640WriteByte(0xc9);
 644   1          TM1640WriteByte(co_name[5]);
 645   1          TM1640Stop();
 646   1          //TM1640Start();
 647   1          //TM1640WriteByte(0x8b); //Set the starting address
 648   1          //TM1640Stop();
 649   1          Delay_Some_Time(100);
 650   1      
 651   1          TM1640Start();
 652   1          TM1640WriteByte(0xcb);
 653   1          TM1640WriteByte(co_name[15]);
 654   1          TM1640Stop();
 655   1          TM1640Start();
 656   1          TM1640WriteByte(0xc1);
 657   1          TM1640WriteByte(co_name[14]);
 658   1          TM1640Stop();
 659   1          TM1640Start();
 660   1          TM1640WriteByte(0xc4);
 661   1          TM1640WriteByte(co_name[13]);
 662   1          TM1640Stop();
 663   1          TM1640Start();
 664   1          TM1640WriteByte(0xc3);
 665   1          TM1640WriteByte(co_name[12]);
 666   1          TM1640Stop();
 667   1          TM1640Start();
 668   1          TM1640WriteByte(0xc6);
 669   1          TM1640WriteByte(co_name[11]);
 670   1          TM1640Stop();
 671   1          TM1640Start();
 672   1          TM1640WriteByte(0xc5);
 673   1          TM1640WriteByte(co_name[10]);
C51 COMPILER V9.60.0.0   TM1640                                                            10/03/2022 19:06:34 PAGE 12  

 674   1          TM1640Stop();
 675   1          TM1640Start();
 676   1          TM1640WriteByte(0xc8);
 677   1          TM1640WriteByte(co_name[9]);
 678   1          TM1640Stop();
 679   1          TM1640Start();
 680   1          TM1640WriteByte(0xc7);
 681   1          TM1640WriteByte(co_name[8]);
 682   1          TM1640Stop();
 683   1          TM1640Start();
 684   1          TM1640WriteByte(0xca);
 685   1          TM1640WriteByte(co_name[7]);
 686   1          TM1640Stop();
 687   1          TM1640Start();
 688   1          TM1640WriteByte(0xc9);
 689   1          TM1640WriteByte(co_name[6]);
 690   1          TM1640Stop();
 691   1          //TM1640Start();
 692   1          //TM1640WriteByte(0x8b); //Set the starting address
 693   1          //TM1640Stop();
 694   1          Delay_Some_Time(100);
 695   1      
 696   1          TM1640Start();
 697   1          TM1640WriteByte(0xcb);
 698   1          TM1640WriteByte(co_name[16]);
 699   1          TM1640Stop();
 700   1          TM1640Start();
 701   1          TM1640WriteByte(0xc1);
 702   1          TM1640WriteByte(co_name[15]);
 703   1          TM1640Stop();
 704   1          TM1640Start();
 705   1          TM1640WriteByte(0xc4);
 706   1          TM1640WriteByte(co_name[14]);
 707   1          TM1640Stop();
 708   1          TM1640Start();
 709   1          TM1640WriteByte(0xc3);
 710   1          TM1640WriteByte(co_name[13]);
 711   1          TM1640Stop();
 712   1          TM1640Start();
 713   1          TM1640WriteByte(0xc6);
 714   1          TM1640WriteByte(co_name[12]);
 715   1          TM1640Stop();
 716   1          TM1640Start();
 717   1          TM1640WriteByte(0xc5);
 718   1          TM1640WriteByte(co_name[11]);
 719   1          TM1640Stop();
 720   1          TM1640Start();
 721   1          TM1640WriteByte(0xc8);
 722   1          TM1640WriteByte(co_name[10]);
 723   1          TM1640Stop();
 724   1          TM1640Start();
 725   1          TM1640WriteByte(0xc7);
 726   1          TM1640WriteByte(co_name[9]);
 727   1          TM1640Stop();
 728   1          TM1640Start();
 729   1          TM1640WriteByte(0xca);
 730   1          TM1640WriteByte(co_name[8]);
 731   1          TM1640Stop();
 732   1          TM1640Start();
 733   1          TM1640WriteByte(0xc9);
 734   1          TM1640WriteByte(co_name[7]);
 735   1          TM1640Stop();
C51 COMPILER V9.60.0.0   TM1640                                                            10/03/2022 19:06:34 PAGE 13  

 736   1          //TM1640Start();
 737   1          //TM1640WriteByte(0x8b); //Set the starting address
 738   1          //TM1640Stop();
 739   1          Delay_Some_Time(100);
 740   1      
 741   1          TM1640Start();
 742   1          TM1640WriteByte(0xcb);
 743   1          TM1640WriteByte(co_name[17]);
 744   1          TM1640Stop();
 745   1          TM1640Start();
 746   1          TM1640WriteByte(0xc1);
 747   1          TM1640WriteByte(co_name[16]);
 748   1          TM1640Stop();
 749   1          TM1640Start();
 750   1          TM1640WriteByte(0xc4);
 751   1          TM1640WriteByte(co_name[15]);
 752   1          TM1640Stop();
 753   1          TM1640Start();
 754   1          TM1640WriteByte(0xc3);
 755   1          TM1640WriteByte(co_name[14]);
 756   1          TM1640Stop();
 757   1          TM1640Start();
 758   1          TM1640WriteByte(0xc6);
 759   1          TM1640WriteByte(co_name[13]);
 760   1          TM1640Stop();
 761   1          TM1640Start();
 762   1          TM1640WriteByte(0xc5);
 763   1          TM1640WriteByte(co_name[12]);
 764   1          TM1640Stop();
 765   1          TM1640Start();
 766   1          TM1640WriteByte(0xc8);
 767   1          TM1640WriteByte(co_name[11]);
 768   1          TM1640Stop();
 769   1          TM1640Start();
 770   1          TM1640WriteByte(0xc7);
 771   1          TM1640WriteByte(co_name[10]);
 772   1          TM1640Stop();
 773   1          TM1640Start();
 774   1          TM1640WriteByte(0xca);
 775   1          TM1640WriteByte(co_name[9]);
 776   1          TM1640Stop();
 777   1          TM1640Start();
 778   1          TM1640WriteByte(0xc9);
 779   1          TM1640WriteByte(co_name[8]);
 780   1          TM1640Stop();
 781   1          //TM1640Start();
 782   1          //TM1640WriteByte(0x8b); //Set the starting address
 783   1          //TM1640Stop();
 784   1          Delay_Some_Time(100);
 785   1      
 786   1          TM1640Start();
 787   1          TM1640WriteByte(0xcb);
 788   1          TM1640WriteByte(co_name[18]);
 789   1          TM1640Stop();
 790   1          TM1640Start();
 791   1          TM1640WriteByte(0xc1);
 792   1          TM1640WriteByte(co_name[17]);
 793   1          TM1640Stop();
 794   1          TM1640Start();
 795   1          TM1640WriteByte(0xc4);
 796   1          TM1640WriteByte(co_name[16]);
 797   1          TM1640Stop();
C51 COMPILER V9.60.0.0   TM1640                                                            10/03/2022 19:06:34 PAGE 14  

 798   1          TM1640Start();
 799   1          TM1640WriteByte(0xc3);
 800   1          TM1640WriteByte(co_name[15]);
 801   1          TM1640Stop();
 802   1          TM1640Start();
 803   1          TM1640WriteByte(0xc6);
 804   1          TM1640WriteByte(co_name[14]);
 805   1          TM1640Stop();
 806   1          TM1640Start();
 807   1          TM1640WriteByte(0xc5);
 808   1          TM1640WriteByte(co_name[13]);
 809   1          TM1640Stop();
 810   1          TM1640Start();
 811   1          TM1640WriteByte(0xc8);
 812   1          TM1640WriteByte(co_name[12]);
 813   1          TM1640Stop();
 814   1          TM1640Start();
 815   1          TM1640WriteByte(0xc7);
 816   1          TM1640WriteByte(co_name[11]);
 817   1          TM1640Stop();
 818   1          TM1640Start();
 819   1          TM1640WriteByte(0xca);
 820   1          TM1640WriteByte(co_name[10]);
 821   1          TM1640Stop();
 822   1          TM1640Start();
 823   1          TM1640WriteByte(0xc9);
 824   1          TM1640WriteByte(co_name[9]);
 825   1          TM1640Stop();
 826   1          //TM1640Start();
 827   1          //TM1640WriteByte(0x8b); //Set the starting address
 828   1          //TM1640Stop();
 829   1          Delay_Some_Time(100);
 830   1      
 831   1          TM1640Start();
 832   1          TM1640WriteByte(0xcb);
 833   1          TM1640WriteByte(co_name[19]);
 834   1          TM1640Stop();
 835   1          TM1640Start();
 836   1          TM1640WriteByte(0xc1);
 837   1          TM1640WriteByte(co_name[18]);
 838   1          TM1640Stop();
 839   1          TM1640Start();
 840   1          TM1640WriteByte(0xc4);
 841   1          TM1640WriteByte(co_name[17]);
 842   1          TM1640Stop();
 843   1          TM1640Start();
 844   1          TM1640WriteByte(0xc3);
 845   1          TM1640WriteByte(co_name[16]);
 846   1          TM1640Stop();
 847   1          TM1640Start();
 848   1          TM1640WriteByte(0xc6);
 849   1          TM1640WriteByte(co_name[15]);
 850   1          TM1640Stop();
 851   1          TM1640Start();
 852   1          TM1640WriteByte(0xc5);
 853   1          TM1640WriteByte(co_name[14]);
 854   1          TM1640Stop();
 855   1          TM1640Start();
 856   1          TM1640WriteByte(0xc8);
 857   1          TM1640WriteByte(co_name[13]);
 858   1          TM1640Stop();
 859   1          TM1640Start();
C51 COMPILER V9.60.0.0   TM1640                                                            10/03/2022 19:06:34 PAGE 15  

 860   1          TM1640WriteByte(0xc7);
 861   1          TM1640WriteByte(co_name[12]);
 862   1          TM1640Stop();
 863   1          TM1640Start();
 864   1          TM1640WriteByte(0xca);
 865   1          TM1640WriteByte(co_name[11]);
 866   1          TM1640Stop();
 867   1          TM1640Start();
 868   1          TM1640WriteByte(0xc9);
 869   1          TM1640WriteByte(co_name[10]);
 870   1          TM1640Stop();
 871   1          TM1640Start();
 872   1          TM1640WriteByte(0x8b); //Set the starting address
 873   1          TM1640Stop();
 874   1      
 875   1      }
 876          
 877          void TM1640_digichk(unsigned char *dichk_temp)
 878          {
 879   1          TM1640Start();
 880   1          TM1640WriteByte(0x44); //Set the starting address
 881   1          TM1640Stop();
 882   1      
 883   1          TM1640Start();
 884   1          TM1640WriteByte(0xc2);
 885   1          TM1640WriteByte(dichk_temp[0]);
 886   1          TM1640Stop();
 887   1      
 888   1      
 889   1          TM1640Start();
 890   1          TM1640WriteByte(0xc0);
 891   1          TM1640WriteByte(dichk_temp[0]);
 892   1          TM1640Stop();
 893   1      
 894   1          TM1640Start();
 895   1          TM1640WriteByte(0xcc);
 896   1          TM1640WriteByte(dichk_temp[0]);
 897   1          TM1640Stop();
 898   1      
 899   1          TM1640Start();
 900   1          TM1640WriteByte(0xce);
 901   1          TM1640WriteByte(dichk_temp[0]);
 902   1          TM1640Stop();
 903   1      
 904   1          TM1640Start();
 905   1          TM1640WriteByte(0xcf);
 906   1          TM1640WriteByte(dichk_temp[0]);
 907   1          TM1640Stop();
 908   1      
 909   1          TM1640Start();
 910   1          TM1640WriteByte(0xcd);
 911   1          TM1640WriteByte(dichk_temp[0]);
 912   1          TM1640Stop();
 913   1      
 914   1          TM1640Start();
 915   1          TM1640WriteByte(0xcb);
 916   1          TM1640WriteByte(dichk_temp[0]);
 917   1          TM1640Stop();
 918   1      
 919   1          TM1640Start();
 920   1          TM1640WriteByte(0xc1);
 921   1          TM1640WriteByte(dichk_temp[0]);
C51 COMPILER V9.60.0.0   TM1640                                                            10/03/2022 19:06:34 PAGE 16  

 922   1          TM1640Stop();
 923   1      
 924   1          TM1640Start();
 925   1          TM1640WriteByte(0xc4);
 926   1          TM1640WriteByte(dichk_temp[0]);
 927   1          TM1640Stop();
 928   1      
 929   1          TM1640Start();
 930   1          TM1640WriteByte(0xc3);
 931   1          TM1640WriteByte(dichk_temp[0]);
 932   1          TM1640Stop();
 933   1      
 934   1          TM1640Start();
 935   1          TM1640WriteByte(0xc6);
 936   1          TM1640WriteByte(dichk_temp[0]);
 937   1          TM1640Stop();
 938   1      
 939   1          TM1640Start();
 940   1          TM1640WriteByte(0xc5);
 941   1          TM1640WriteByte(dichk_temp[0]);
 942   1          TM1640Stop();
 943   1      
 944   1          TM1640Start();
 945   1          TM1640WriteByte(0xc8);
 946   1          TM1640WriteByte(dichk_temp[0]);
 947   1          TM1640Stop();
 948   1      
 949   1          TM1640Start();
 950   1          TM1640WriteByte(0xc7);
 951   1          TM1640WriteByte(dichk_temp[0]);
 952   1          TM1640Stop();
 953   1      
 954   1          TM1640Start();
 955   1          TM1640WriteByte(0xca);
 956   1          TM1640WriteByte(dichk_temp[0]);
 957   1          TM1640Stop();
 958   1      
 959   1          TM1640Start();
 960   1          TM1640WriteByte(0xc9);
 961   1          TM1640WriteByte(dichk_temp[0]);
 962   1          TM1640Stop();
 963   1          //TM1640Start();
 964   1          //TM1640WriteByte(0x8b); //Set the starting address
 965   1          //TM1640Stop();
 966   1      
 967   1      
 968   1          Delay_Some_Time(500);
 969   1      
 970   1          TM1640Start();
 971   1          TM1640WriteByte(0xc2);
 972   1          TM1640WriteByte(dichk_temp[1]);
 973   1          TM1640Stop();
 974   1      
 975   1          TM1640Start();
 976   1          TM1640WriteByte(0xc0);
 977   1          TM1640WriteByte(dichk_temp[1]);
 978   1          TM1640Stop();
 979   1      
 980   1          TM1640Start();
 981   1          TM1640WriteByte(0xcc);
 982   1          TM1640WriteByte(dichk_temp[1]);
 983   1          TM1640Stop();
C51 COMPILER V9.60.0.0   TM1640                                                            10/03/2022 19:06:34 PAGE 17  

 984   1      
 985   1          TM1640Start();
 986   1          TM1640WriteByte(0xce);
 987   1          TM1640WriteByte(dichk_temp[1]);
 988   1          TM1640Stop();
 989   1      
 990   1          TM1640Start();
 991   1          TM1640WriteByte(0xcf);
 992   1          TM1640WriteByte(dichk_temp[1]);
 993   1          TM1640Stop();
 994   1      
 995   1          TM1640Start();
 996   1          TM1640WriteByte(0xcd);
 997   1          TM1640WriteByte(dichk_temp[1]);
 998   1          TM1640Stop();
 999   1      
1000   1          TM1640Start();
1001   1          TM1640WriteByte(0xcb);
1002   1          TM1640WriteByte(dichk_temp[1]);
1003   1          TM1640Stop();
1004   1      
1005   1          TM1640Start();
1006   1          TM1640WriteByte(0xc1);
1007   1          TM1640WriteByte(dichk_temp[1]);
1008   1          TM1640Stop();
1009   1      
1010   1          TM1640Start();
1011   1          TM1640WriteByte(0xc4);
1012   1          TM1640WriteByte(dichk_temp[1]);
1013   1          TM1640Stop();
1014   1      
1015   1          TM1640Start();
1016   1          TM1640WriteByte(0xc3);
1017   1          TM1640WriteByte(dichk_temp[1]);
1018   1          TM1640Stop();
1019   1      
1020   1          TM1640Start();
1021   1          TM1640WriteByte(0xc6);
1022   1          TM1640WriteByte(dichk_temp[1]);
1023   1          TM1640Stop();
1024   1      
1025   1          TM1640Start();
1026   1          TM1640WriteByte(0xc5);
1027   1          TM1640WriteByte(dichk_temp[1]);
1028   1          TM1640Stop();
1029   1      
1030   1          TM1640Start();
1031   1          TM1640WriteByte(0xc8);
1032   1          TM1640WriteByte(dichk_temp[1]);
1033   1          TM1640Stop();
1034   1      
1035   1          TM1640Start();
1036   1          TM1640WriteByte(0xc7);
1037   1          TM1640WriteByte(dichk_temp[1]);
1038   1          TM1640Stop();
1039   1      
1040   1          TM1640Start();
1041   1          TM1640WriteByte(0xca);
1042   1          TM1640WriteByte(dichk_temp[1]);
1043   1          TM1640Stop();
1044   1      
1045   1          TM1640Start();
C51 COMPILER V9.60.0.0   TM1640                                                            10/03/2022 19:06:34 PAGE 18  

1046   1          TM1640WriteByte(0xc9);
1047   1          TM1640WriteByte(dichk_temp[1]);
1048   1          TM1640Stop();
1049   1      
1050   1          Delay_Some_Time(500);
1051   1      
1052   1          TM1640Start();
1053   1          TM1640WriteByte(0xc2);
1054   1          TM1640WriteByte(dichk_temp[2]);
1055   1          TM1640Stop();
1056   1      
1057   1          TM1640Start();
1058   1          TM1640WriteByte(0xc0);
1059   1          TM1640WriteByte(dichk_temp[2]);
1060   1          TM1640Stop();
1061   1      
1062   1          TM1640Start();
1063   1          TM1640WriteByte(0xcc);
1064   1          TM1640WriteByte(dichk_temp[2]);
1065   1          TM1640Stop();
1066   1      
1067   1          TM1640Start();
1068   1          TM1640WriteByte(0xce);
1069   1          TM1640WriteByte(dichk_temp[2]);
1070   1          TM1640Stop();
1071   1      
1072   1          TM1640Start();
1073   1          TM1640WriteByte(0xcf);
1074   1          TM1640WriteByte(dichk_temp[2]);
1075   1          TM1640Stop();
1076   1      
1077   1          TM1640Start();
1078   1          TM1640WriteByte(0xcd);
1079   1          TM1640WriteByte(dichk_temp[2]);
1080   1          TM1640Stop();
1081   1      
1082   1          TM1640Start();
1083   1          TM1640WriteByte(0xcb);
1084   1          TM1640WriteByte(dichk_temp[2]);
1085   1          TM1640Stop();
1086   1      
1087   1          TM1640Start();
1088   1          TM1640WriteByte(0xc1);
1089   1          TM1640WriteByte(dichk_temp[2]);
1090   1          TM1640Stop();
1091   1      
1092   1          TM1640Start();
1093   1          TM1640WriteByte(0xc4);
1094   1          TM1640WriteByte(dichk_temp[2]);
1095   1          TM1640Stop();
1096   1      
1097   1          TM1640Start();
1098   1          TM1640WriteByte(0xc3);
1099   1          TM1640WriteByte(dichk_temp[2]);
1100   1          TM1640Stop();
1101   1      
1102   1          TM1640Start();
1103   1          TM1640WriteByte(0xc6);
1104   1          TM1640WriteByte(dichk_temp[2]);
1105   1          TM1640Stop();
1106   1      
1107   1          TM1640Start();
C51 COMPILER V9.60.0.0   TM1640                                                            10/03/2022 19:06:34 PAGE 19  

1108   1          TM1640WriteByte(0xc5);
1109   1          TM1640WriteByte(dichk_temp[2]);
1110   1          TM1640Stop();
1111   1      
1112   1          TM1640Start();
1113   1          TM1640WriteByte(0xc8);
1114   1          TM1640WriteByte(dichk_temp[2]);
1115   1          TM1640Stop();
1116   1      
1117   1          TM1640Start();
1118   1          TM1640WriteByte(0xc7);
1119   1          TM1640WriteByte(dichk_temp[2]);
1120   1          TM1640Stop();
1121   1      
1122   1          TM1640Start();
1123   1          TM1640WriteByte(0xca);
1124   1          TM1640WriteByte(dichk_temp[2]);
1125   1          TM1640Stop();
1126   1      
1127   1          TM1640Start();
1128   1          TM1640WriteByte(0xc9);
1129   1          TM1640WriteByte(dichk_temp[2]);
1130   1          TM1640Stop();
1131   1      
1132   1          Delay_Some_Time(500);
1133   1      
1134   1          TM1640Start();
1135   1          TM1640WriteByte(0xc2);
1136   1          TM1640WriteByte(dichk_temp[3]);
1137   1          TM1640Stop();
1138   1      
1139   1          TM1640Start();
1140   1          TM1640WriteByte(0xc0);
1141   1          TM1640WriteByte(dichk_temp[3]);
1142   1          TM1640Stop();
1143   1      
1144   1          TM1640Start();
1145   1          TM1640WriteByte(0xcc);
1146   1          TM1640WriteByte(dichk_temp[3]);
1147   1          TM1640Stop();
1148   1      
1149   1          TM1640Start();
1150   1          TM1640WriteByte(0xce);
1151   1          TM1640WriteByte(dichk_temp[3]);
1152   1          TM1640Stop();
1153   1      
1154   1          TM1640Start();
1155   1          TM1640WriteByte(0xcf);
1156   1          TM1640WriteByte(dichk_temp[3]);
1157   1          TM1640Stop();
1158   1      
1159   1          TM1640Start();
1160   1          TM1640WriteByte(0xcd);
1161   1          TM1640WriteByte(dichk_temp[3]);
1162   1          TM1640Stop();
1163   1      
1164   1          TM1640Start();
1165   1          TM1640WriteByte(0xcb);
1166   1          TM1640WriteByte(dichk_temp[3]);
1167   1          TM1640Stop();
1168   1      
1169   1          TM1640Start();
C51 COMPILER V9.60.0.0   TM1640                                                            10/03/2022 19:06:34 PAGE 20  

1170   1          TM1640WriteByte(0xc1);
1171   1          TM1640WriteByte(dichk_temp[3]);
1172   1          TM1640Stop();
1173   1      
1174   1          TM1640Start();
1175   1          TM1640WriteByte(0xc4);
1176   1          TM1640WriteByte(dichk_temp[3]);
1177   1          TM1640Stop();
1178   1      
1179   1          TM1640Start();
1180   1          TM1640WriteByte(0xc3);
1181   1          TM1640WriteByte(dichk_temp[3]);
1182   1          TM1640Stop();
1183   1      
1184   1          TM1640Start();
1185   1          TM1640WriteByte(0xc6);
1186   1          TM1640WriteByte(dichk_temp[3]);
1187   1          TM1640Stop();
1188   1      
1189   1          TM1640Start();
1190   1          TM1640WriteByte(0xc5);
1191   1          TM1640WriteByte(dichk_temp[3]);
1192   1          TM1640Stop();
1193   1      
1194   1          TM1640Start();
1195   1          TM1640WriteByte(0xc8);
1196   1          TM1640WriteByte(dichk_temp[3]);
1197   1          TM1640Stop();
1198   1      
1199   1          TM1640Start();
1200   1          TM1640WriteByte(0xc7);
1201   1          TM1640WriteByte(dichk_temp[3]);
1202   1          TM1640Stop();
1203   1      
1204   1          TM1640Start();
1205   1          TM1640WriteByte(0xca);
1206   1          TM1640WriteByte(dichk_temp[3]);
1207   1          TM1640Stop();
1208   1      
1209   1          TM1640Start();
1210   1          TM1640WriteByte(0xc9);
1211   1          TM1640WriteByte(dichk_temp[3]);
1212   1          TM1640Stop();
1213   1      
1214   1          Delay_Some_Time(500);
1215   1      
1216   1          TM1640Start();
1217   1          TM1640WriteByte(0xc2);
1218   1          TM1640WriteByte(dichk_temp[4]);
1219   1          TM1640Stop();
1220   1      
1221   1          TM1640Start();
1222   1          TM1640WriteByte(0xc0);
1223   1          TM1640WriteByte(dichk_temp[4]);
1224   1          TM1640Stop();
1225   1      
1226   1          TM1640Start();
1227   1          TM1640WriteByte(0xcc);
1228   1          TM1640WriteByte(dichk_temp[4]);
1229   1          TM1640Stop();
1230   1      
1231   1          TM1640Start();
C51 COMPILER V9.60.0.0   TM1640                                                            10/03/2022 19:06:34 PAGE 21  

1232   1          TM1640WriteByte(0xce);
1233   1          TM1640WriteByte(dichk_temp[4]);
1234   1          TM1640Stop();
1235   1      
1236   1          TM1640Start();
1237   1          TM1640WriteByte(0xcf);
1238   1          TM1640WriteByte(dichk_temp[4]);
1239   1          TM1640Stop();
1240   1      
1241   1          TM1640Start();
1242   1          TM1640WriteByte(0xcd);
1243   1          TM1640WriteByte(dichk_temp[4]);
1244   1          TM1640Stop();
1245   1      
1246   1          TM1640Start();
1247   1          TM1640WriteByte(0xcb);
1248   1          TM1640WriteByte(dichk_temp[4]);
1249   1          TM1640Stop();
1250   1      
1251   1          TM1640Start();
1252   1          TM1640WriteByte(0xc1);
1253   1          TM1640WriteByte(dichk_temp[4]);
1254   1          TM1640Stop();
1255   1      
1256   1          TM1640Start();
1257   1          TM1640WriteByte(0xc4);
1258   1          TM1640WriteByte(dichk_temp[4]);
1259   1          TM1640Stop();
1260   1      
1261   1          TM1640Start();
1262   1          TM1640WriteByte(0xc3);
1263   1          TM1640WriteByte(dichk_temp[4]);
1264   1          TM1640Stop();
1265   1      
1266   1          TM1640Start();
1267   1          TM1640WriteByte(0xc6);
1268   1          TM1640WriteByte(dichk_temp[4]);
1269   1          TM1640Stop();
1270   1      
1271   1          TM1640Start();
1272   1          TM1640WriteByte(0xc5);
1273   1          TM1640WriteByte(dichk_temp[4]);
1274   1          TM1640Stop();
1275   1      
1276   1          TM1640Start();
1277   1          TM1640WriteByte(0xc8);
1278   1          TM1640WriteByte(dichk_temp[4]);
1279   1          TM1640Stop();
1280   1      
1281   1          TM1640Start();
1282   1          TM1640WriteByte(0xc7);
1283   1          TM1640WriteByte(dichk_temp[4]);
1284   1          TM1640Stop();
1285   1      
1286   1          TM1640Start();
1287   1          TM1640WriteByte(0xca);
1288   1          TM1640WriteByte(dichk_temp[4]);
1289   1          TM1640Stop();
1290   1      
1291   1          TM1640Start();
1292   1          TM1640WriteByte(0xc9);
1293   1          TM1640WriteByte(dichk_temp[4]);
C51 COMPILER V9.60.0.0   TM1640                                                            10/03/2022 19:06:34 PAGE 22  

1294   1          TM1640Stop();
1295   1      
1296   1          Delay_Some_Time(500);
1297   1      
1298   1          TM1640Start();
1299   1          TM1640WriteByte(0xc2);
1300   1          TM1640WriteByte(dichk_temp[5]);
1301   1          TM1640Stop();
1302   1      
1303   1          TM1640Start();
1304   1          TM1640WriteByte(0xc0);
1305   1          TM1640WriteByte(dichk_temp[5]);
1306   1          TM1640Stop();
1307   1      
1308   1          TM1640Start();
1309   1          TM1640WriteByte(0xcc);
1310   1          TM1640WriteByte(dichk_temp[5]);
1311   1          TM1640Stop();
1312   1      
1313   1          TM1640Start();
1314   1          TM1640WriteByte(0xce);
1315   1          TM1640WriteByte(dichk_temp[5]);
1316   1          TM1640Stop();
1317   1      
1318   1          TM1640Start();
1319   1          TM1640WriteByte(0xcf);
1320   1          TM1640WriteByte(dichk_temp[5]);
1321   1          TM1640Stop();
1322   1      
1323   1          TM1640Start();
1324   1          TM1640WriteByte(0xcd);
1325   1          TM1640WriteByte(dichk_temp[5]);
1326   1          TM1640Stop();
1327   1      
1328   1          TM1640Start();
1329   1          TM1640WriteByte(0xcb);
1330   1          TM1640WriteByte(dichk_temp[5]);
1331   1          TM1640Stop();
1332   1      
1333   1          TM1640Start();
1334   1          TM1640WriteByte(0xc1);
1335   1          TM1640WriteByte(dichk_temp[5]);
1336   1          TM1640Stop();
1337   1      
1338   1          TM1640Start();
1339   1          TM1640WriteByte(0xc4);
1340   1          TM1640WriteByte(dichk_temp[5]);
1341   1          TM1640Stop();
1342   1      
1343   1          TM1640Start();
1344   1          TM1640WriteByte(0xc3);
1345   1          TM1640WriteByte(dichk_temp[5]);
1346   1          TM1640Stop();
1347   1      
1348   1          TM1640Start();
1349   1          TM1640WriteByte(0xc6);
1350   1          TM1640WriteByte(dichk_temp[5]);
1351   1          TM1640Stop();
1352   1      
1353   1          TM1640Start();
1354   1          TM1640WriteByte(0xc5);
1355   1          TM1640WriteByte(dichk_temp[5]);
C51 COMPILER V9.60.0.0   TM1640                                                            10/03/2022 19:06:34 PAGE 23  

1356   1          TM1640Stop();
1357   1      
1358   1          TM1640Start();
1359   1          TM1640WriteByte(0xc8);
1360   1          TM1640WriteByte(dichk_temp[5]);
1361   1          TM1640Stop();
1362   1      
1363   1          TM1640Start();
1364   1          TM1640WriteByte(0xc7);
1365   1          TM1640WriteByte(dichk_temp[5]);
1366   1          TM1640Stop();
1367   1      
1368   1          TM1640Start();
1369   1          TM1640WriteByte(0xca);
1370   1          TM1640WriteByte(dichk_temp[5]);
1371   1          TM1640Stop();
1372   1      
1373   1          TM1640Start();
1374   1          TM1640WriteByte(0xc9);
1375   1          TM1640WriteByte(dichk_temp[5]);
1376   1          TM1640Stop();
1377   1      
1378   1          Delay_Some_Time(500);
1379   1      
1380   1          TM1640Start();
1381   1          TM1640WriteByte(0xc2);
1382   1          TM1640WriteByte(dichk_temp[6]);
1383   1          TM1640Stop();
1384   1      
1385   1          TM1640Start();
1386   1          TM1640WriteByte(0xc0);
1387   1          TM1640WriteByte(dichk_temp[6]);
1388   1          TM1640Stop();
1389   1      
1390   1          TM1640Start();
1391   1          TM1640WriteByte(0xcc);
1392   1          TM1640WriteByte(dichk_temp[6]);
1393   1          TM1640Stop();
1394   1      
1395   1          TM1640Start();
1396   1          TM1640WriteByte(0xce);
1397   1          TM1640WriteByte(dichk_temp[6]);
1398   1          TM1640Stop();
1399   1      
1400   1          TM1640Start();
1401   1          TM1640WriteByte(0xcf);
1402   1          TM1640WriteByte(dichk_temp[6]);
1403   1          TM1640Stop();
1404   1      
1405   1          TM1640Start();
1406   1          TM1640WriteByte(0xcd);
1407   1          TM1640WriteByte(dichk_temp[6]);
1408   1          TM1640Stop();
1409   1      
1410   1          TM1640Start();
1411   1          TM1640WriteByte(0xcb);
1412   1          TM1640WriteByte(dichk_temp[6]);
1413   1          TM1640Stop();
1414   1      
1415   1          TM1640Start();
1416   1          TM1640WriteByte(0xc1);
1417   1          TM1640WriteByte(dichk_temp[6]);
C51 COMPILER V9.60.0.0   TM1640                                                            10/03/2022 19:06:34 PAGE 24  

1418   1          TM1640Stop();
1419   1      
1420   1          TM1640Start();
1421   1          TM1640WriteByte(0xc4);
1422   1          TM1640WriteByte(dichk_temp[6]);
1423   1          TM1640Stop();
1424   1      
1425   1          TM1640Start();
1426   1          TM1640WriteByte(0xc3);
1427   1          TM1640WriteByte(dichk_temp[6]);
1428   1          TM1640Stop();
1429   1      
1430   1          TM1640Start();
1431   1          TM1640WriteByte(0xc6);
1432   1          TM1640WriteByte(dichk_temp[6]);
1433   1          TM1640Stop();
1434   1      
1435   1          TM1640Start();
1436   1          TM1640WriteByte(0xc5);
1437   1          TM1640WriteByte(dichk_temp[6]);
1438   1          TM1640Stop();
1439   1      
1440   1          TM1640Start();
1441   1          TM1640WriteByte(0xc8);
1442   1          TM1640WriteByte(dichk_temp[6]);
1443   1          TM1640Stop();
1444   1      
1445   1          TM1640Start();
1446   1          TM1640WriteByte(0xc7);
1447   1          TM1640WriteByte(dichk_temp[6]);
1448   1          TM1640Stop();
1449   1      
1450   1          TM1640Start();
1451   1          TM1640WriteByte(0xca);
1452   1          TM1640WriteByte(dichk_temp[6]);
1453   1          TM1640Stop();
1454   1      
1455   1          TM1640Start();
1456   1          TM1640WriteByte(0xc9);
1457   1          TM1640WriteByte(dichk_temp[6]);
1458   1          TM1640Stop();
1459   1      
1460   1          TM1640Start();
1461   1          TM1640WriteByte(0x8b); //Set the starting address
1462   1          TM1640Stop();
1463   1      }
1464          
1465          void TM1640_L_display(unsigned char *ltemp)
1466          {
1467   1      
1468   1          TM1640Start();
1469   1          TM1640WriteByte(0x44); //Set the starting address
1470   1          TM1640Stop();
1471   1          TM1640Start();
1472   1          TM1640WriteByte(0xc2);
1473   1          TM1640WriteByte(ltemp[0]);
1474   1          TM1640Stop();
1475   1          TM1640Start();
1476   1          TM1640WriteByte(0xc0);
1477   1          TM1640WriteByte(ltemp[1]);
1478   1          TM1640Stop();
1479   1          TM1640Start();
C51 COMPILER V9.60.0.0   TM1640                                                            10/03/2022 19:06:34 PAGE 25  

1480   1          TM1640WriteByte(0xcc);
1481   1          TM1640WriteByte(ltemp[2]);
1482   1          TM1640Stop();
1483   1          TM1640Start();
1484   1          TM1640WriteByte(0xce);
1485   1          TM1640WriteByte(ltemp[3]);
1486   1          TM1640Stop();
1487   1          TM1640Start();
1488   1          TM1640WriteByte(0xcf);
1489   1          TM1640WriteByte(ltemp[4]);
1490   1          TM1640Stop();
1491   1          TM1640Start();
1492   1          TM1640WriteByte(0xcd);
1493   1          TM1640WriteByte(ltemp[5]);
1494   1          TM1640Stop();
1495   1          TM1640Start();
1496   1          TM1640WriteByte(0x8b); //Set the starting address
1497   1          TM1640Stop();
1498   1      }
1499          
1500          void TM1640_GPIO_Config(void)
1501          {
1502   1          P2M0 = 0x03;
1503   1          P20 = 0;
1504   1          P21 = 0;
1505   1          PUCON0 = 0x00;
1506   1      }
C51 COMPILER V9.60.0.0   TM1640                                                            10/03/2022 19:06:34 PAGE 26  

ASSEMBLY LISTING OF GENERATED OBJECT CODE


             ; FUNCTION _TM1640_Init (BEGIN)
                                           ; SOURCE LINE # 9
0000 8F00        R     MOV     InValue,R7
                                           ; SOURCE LINE # 10
                                           ; SOURCE LINE # 12
0002 D2A0              SETB    P20
                                           ; SOURCE LINE # 13
0004 7F01              MOV     R7,#01H
0006 7E00              MOV     R6,#00H
0008 120000      E     LCALL   _Delay_Some_Time
                                           ; SOURCE LINE # 15
000B D2A1              SETB    P21
                                           ; SOURCE LINE # 17
000D E500        R     MOV     A,InValue
000F 7007              JNZ     ?C0001
                                           ; SOURCE LINE # 18
                                           ; SOURCE LINE # 19
0011 120000      R     LCALL   TM1640Start
                                           ; SOURCE LINE # 20
0014 7F80              MOV     R7,#080H
                                           ; SOURCE LINE # 21
                                           ; SOURCE LINE # 22
0016 8010              SJMP    ?C0022
0018         ?C0001:
                                           ; SOURCE LINE # 24
                                           ; SOURCE LINE # 25
0018 120000      R     LCALL   TM1640Start
                                           ; SOURCE LINE # 26
001B 7F44              MOV     R7,#044H
001D 120000      R     LCALL   _TM1640WriteByte
                                           ; SOURCE LINE # 27
0020 120000      R     LCALL   TM1640Stop
                                           ; SOURCE LINE # 28
0023 120000      R     LCALL   TM1640Start
                                           ; SOURCE LINE # 29
0026 7F8F              MOV     R7,#08FH
0028         ?C0022:
0028 120000      R     LCALL   _TM1640WriteByte
                                           ; SOURCE LINE # 30
002B 120000      R     LCALL   TM1640Stop
                                           ; SOURCE LINE # 31
                                           ; SOURCE LINE # 32
002E         ?C0003:
002E 22                RET     
             ; FUNCTION _TM1640_Init (END)

             ; FUNCTION TM1640Start (BEGIN)
                                           ; SOURCE LINE # 34
                                           ; SOURCE LINE # 35
                                           ; SOURCE LINE # 37
0000 D2A0              SETB    P20
                                           ; SOURCE LINE # 39
0002 D2A1              SETB    P21
                                           ; SOURCE LINE # 40
0004 7F01              MOV     R7,#01H
0006 7E00              MOV     R6,#00H
0008 120000      E     LCALL   _Delay_Some_Time
                                           ; SOURCE LINE # 42
000B C2A0              CLR     P20
C51 COMPILER V9.60.0.0   TM1640                                                            10/03/2022 19:06:34 PAGE 27  

                                           ; SOURCE LINE # 43
000D 7F01              MOV     R7,#01H
000F 7E00              MOV     R6,#00H
0011 120000      E     LCALL   _Delay_Some_Time
                                           ; SOURCE LINE # 45
0014 C2A1              CLR     P21
                                           ; SOURCE LINE # 46
0016 7F01              MOV     R7,#01H
0018 7E00              MOV     R6,#00H
001A 020000      E     LJMP    _Delay_Some_Time
             ; FUNCTION TM1640Start (END)

             ; FUNCTION L?0024 (BEGIN)
0000         L?0025:
0000 900001            MOV     DPTR,#01H
0003         L?0026:
0003 AB00        R     MOV     R3,co_name
0005 AA00        R     MOV     R2,co_name+01H
0007 A900        R     MOV     R1,co_name+02H
0009         L?0027:
0009 120000      E     LCALL   ?C?CLDOPTR
000C FF                MOV     R7,A
             ; FUNCTION _TM1640WriteByte (BEGIN)
                                           ; SOURCE LINE # 49
;---- Variable 'date' assigned to Register 'R7' ----
                                           ; SOURCE LINE # 50
                                           ; SOURCE LINE # 53
000D 8F00        R     MOV     Tmp,R7
                                           ; SOURCE LINE # 55
000F C2A0              CLR     P20
                                           ; SOURCE LINE # 57
0011 C2A1              CLR     P21
                                           ; SOURCE LINE # 58
0013 E4                CLR     A
0014 F500        R     MOV     i,A
0016         ?C0005:
0016 C3                CLR     C
0017 E500        R     MOV     A,i
0019 9408              SUBB    A,#08H
001B 7480              MOV     A,#080H
001D 9480              SUBB    A,#080H
001F 5027              JNC     ?C0006
                                           ; SOURCE LINE # 59
                                           ; SOURCE LINE # 61
0021 C2A1              CLR     P21
                                           ; SOURCE LINE # 62
0023 7F01              MOV     R7,#01H
0025 7E00              MOV     R6,#00H
0027 120000      E     LCALL   _Delay_Some_Time
                                           ; SOURCE LINE # 63
002A E500        R     MOV     A,Tmp
002C 30E004            JNB     ACC.0,?C0008
                                           ; SOURCE LINE # 64
                                           ; SOURCE LINE # 66
002F D2A0              SETB    P20
                                           ; SOURCE LINE # 67
                                           ; SOURCE LINE # 68
0031 8002              SJMP    ?C0023
0033         ?C0008:
                                           ; SOURCE LINE # 70
                                           ; SOURCE LINE # 72
0033 C2A0              CLR     P20
C51 COMPILER V9.60.0.0   TM1640                                                            10/03/2022 19:06:34 PAGE 28  

                                           ; SOURCE LINE # 73
0035         ?C0023:
0035 7F01              MOV     R7,#01H
0037 7E00              MOV     R6,#00H
0039 120000      E     LCALL   _Delay_Some_Time
                                           ; SOURCE LINE # 74
003C         ?C0009:
                                           ; SOURCE LINE # 76
003C D2A1              SETB    P21
                                           ; SOURCE LINE # 77
003E E500        R     MOV     A,Tmp
0040 C3                CLR     C
0041 13                RRC     A
0042 F500        R     MOV     Tmp,A
                                           ; SOURCE LINE # 78
0044 0500        R     INC     i
0046 80CE              SJMP    ?C0005
0048         ?C0006:
                                           ; SOURCE LINE # 80
0048 C2A1              CLR     P21
                                           ; SOURCE LINE # 82
004A C2A0              CLR     P20
                                           ; SOURCE LINE # 83
004C 22                RET     
             ; FUNCTION _TM1640WriteByte (END)

             ; FUNCTION TM1640Stop (BEGIN)
                                           ; SOURCE LINE # 85
                                           ; SOURCE LINE # 86
                                           ; SOURCE LINE # 88
0000 C2A0              CLR     P20
                                           ; SOURCE LINE # 90
0002 D2A1              SETB    P21
                                           ; SOURCE LINE # 91
0004 7F01              MOV     R7,#01H
0006 7E00              MOV     R6,#00H
0008 120000      E     LCALL   _Delay_Some_Time
                                           ; SOURCE LINE # 93
000B D2A0              SETB    P20
                                           ; SOURCE LINE # 94
000D 7F01              MOV     R7,#01H
000F 7E00              MOV     R6,#00H
0011 020000      E     LJMP    _Delay_Some_Time
             ; FUNCTION TM1640Stop (END)

             ; FUNCTION _TM1640_display (BEGIN)
                                           ; SOURCE LINE # 97
0000 8B00        R     MOV     no_digits,R3
0002 8A00        R     MOV     no_digits+01H,R2
0004 8900        R     MOV     no_digits+02H,R1
                                           ; SOURCE LINE # 98
                                           ; SOURCE LINE # 100
0006 120000      R     LCALL   TM1640Start
                                           ; SOURCE LINE # 101
0009 7F44              MOV     R7,#044H
000B 120000      R     LCALL   _TM1640WriteByte
                                           ; SOURCE LINE # 102
000E 120000      R     LCALL   TM1640Stop
                                           ; SOURCE LINE # 103
0011 120000      R     LCALL   TM1640Start
                                           ; SOURCE LINE # 104
0014 7FCD              MOV     R7,#0CDH
C51 COMPILER V9.60.0.0   TM1640                                                            10/03/2022 19:06:34 PAGE 29  

0016 120000      R     LCALL   _TM1640WriteByte
                                           ; SOURCE LINE # 105
0019 E4                CLR     A
001A F500        R     MOV     i,A
001C         ?C0012:
001C C3                CLR     C
001D E500        R     MOV     A,i
001F 9401              SUBB    A,#01H
0021 7480              MOV     A,#080H
0023 9480              SUBB    A,#080H
0025 5013              JNC     ?C0013
                                           ; SOURCE LINE # 106
                                           ; SOURCE LINE # 107
0027 AB00        R     MOV     R3,no_digits
0029 AA00        R     MOV     R2,no_digits+01H
002B A900        R     MOV     R1,no_digits+02H
002D 850082      R     MOV     DPL,i
0030 758300            MOV     DPH,#00H
0033 120000      R     LCALL   L?0027
                                           ; SOURCE LINE # 108
0036 0500        R     INC     i
0038 80E2              SJMP    ?C0012
003A         ?C0013:
                                           ; SOURCE LINE # 109
003A 120000      R     LCALL   TM1640Stop
                                           ; SOURCE LINE # 110
003D 120000      R     LCALL   TM1640Start
                                           ; SOURCE LINE # 111
0040 7F8B              MOV     R7,#08BH
0042 120000      R     LCALL   _TM1640WriteByte
                                           ; SOURCE LINE # 112
0045 020000      R     LJMP    TM1640Stop
             ; FUNCTION _TM1640_display (END)

             ; FUNCTION _TM1640_U_display (BEGIN)
                                           ; SOURCE LINE # 115
0000 8B00        R     MOV     utemp,R3
0002 8A00        R     MOV     utemp+01H,R2
0004 8900        R     MOV     utemp+02H,R1
                                           ; SOURCE LINE # 116
                                           ; SOURCE LINE # 118
0006 120000      R     LCALL   TM1640Start
                                           ; SOURCE LINE # 119
0009 7F44              MOV     R7,#044H
000B 120000      R     LCALL   _TM1640WriteByte
                                           ; SOURCE LINE # 120
000E 120000      R     LCALL   TM1640Stop
                                           ; SOURCE LINE # 121
0011 120000      R     LCALL   TM1640Start
                                           ; SOURCE LINE # 122
0014 7FC5              MOV     R7,#0C5H
0016 120000      R     LCALL   _TM1640WriteByte
                                           ; SOURCE LINE # 123
0019 AB00        R     MOV     R3,utemp
001B AA00        R     MOV     R2,utemp+01H
001D A900        R     MOV     R1,utemp+02H
001F 120000      E     LCALL   ?C?CLDPTR
0022 FF                MOV     R7,A
0023 120000      R     LCALL   _TM1640WriteByte
                                           ; SOURCE LINE # 124
0026 120000      R     LCALL   TM1640Stop
                                           ; SOURCE LINE # 125
C51 COMPILER V9.60.0.0   TM1640                                                            10/03/2022 19:06:34 PAGE 30  

0029 120000      R     LCALL   TM1640Start
                                           ; SOURCE LINE # 126
002C 7FC8              MOV     R7,#0C8H
002E 120000      R     LCALL   _TM1640WriteByte
                                           ; SOURCE LINE # 127
0031 AB00        R     MOV     R3,utemp
0033 AA00        R     MOV     R2,utemp+01H
0035 A900        R     MOV     R1,utemp+02H
0037 900001            MOV     DPTR,#01H
003A 120000      R     LCALL   L?0027
                                           ; SOURCE LINE # 128
003D 120000      R     LCALL   TM1640Stop
                                           ; SOURCE LINE # 129
0040 120000      R     LCALL   TM1640Start
                                           ; SOURCE LINE # 130
0043 7FC7              MOV     R7,#0C7H
0045 120000      R     LCALL   _TM1640WriteByte
                                           ; SOURCE LINE # 131
0048 AB00        R     MOV     R3,utemp
004A AA00        R     MOV     R2,utemp+01H
004C A900        R     MOV     R1,utemp+02H
004E 900002            MOV     DPTR,#02H
0051 120000      R     LCALL   L?0027
                                           ; SOURCE LINE # 132
0054 120000      R     LCALL   TM1640Stop
                                           ; SOURCE LINE # 133
0057 120000      R     LCALL   TM1640Start
                                           ; SOURCE LINE # 134
005A 7FCA              MOV     R7,#0CAH
005C 120000      R     LCALL   _TM1640WriteByte
                                           ; SOURCE LINE # 135
005F AB00        R     MOV     R3,utemp
0061 AA00        R     MOV     R2,utemp+01H
0063 A900        R     MOV     R1,utemp+02H
0065 900003            MOV     DPTR,#03H
0068 120000      R     LCALL   L?0027
                                           ; SOURCE LINE # 136
006B 120000      R     LCALL   TM1640Stop
                                           ; SOURCE LINE # 137
006E 120000      R     LCALL   TM1640Start
                                           ; SOURCE LINE # 138
0071 7FC9              MOV     R7,#0C9H
0073 120000      R     LCALL   _TM1640WriteByte
                                           ; SOURCE LINE # 139
0076 AB00        R     MOV     R3,utemp
0078 AA00        R     MOV     R2,utemp+01H
007A A900        R     MOV     R1,utemp+02H
007C 900004            MOV     DPTR,#04H
007F 120000      R     LCALL   L?0027
                                           ; SOURCE LINE # 140
0082 120000      R     LCALL   TM1640Stop
                                           ; SOURCE LINE # 141
0085 120000      R     LCALL   TM1640Start
                                           ; SOURCE LINE # 142
0088 7F8B              MOV     R7,#08BH
008A 120000      R     LCALL   _TM1640WriteByte
                                           ; SOURCE LINE # 143
008D 020000      R     LJMP    TM1640Stop
             ; FUNCTION _TM1640_U_display (END)

             ; FUNCTION _TM1640_M_display (BEGIN)
                                           ; SOURCE LINE # 146
C51 COMPILER V9.60.0.0   TM1640                                                            10/03/2022 19:06:34 PAGE 31  

0000 8B00        R     MOV     mtemp,R3
0002 8A00        R     MOV     mtemp+01H,R2
0004 8900        R     MOV     mtemp+02H,R1
                                           ; SOURCE LINE # 147
                                           ; SOURCE LINE # 149
0006 120000      R     LCALL   TM1640Start
                                           ; SOURCE LINE # 150
0009 7F44              MOV     R7,#044H
000B 120000      R     LCALL   _TM1640WriteByte
                                           ; SOURCE LINE # 151
000E 120000      R     LCALL   TM1640Stop
                                           ; SOURCE LINE # 152
0011 120000      R     LCALL   TM1640Start
                                           ; SOURCE LINE # 153
0014 7FCB              MOV     R7,#0CBH
0016 120000      R     LCALL   _TM1640WriteByte
                                           ; SOURCE LINE # 154
0019 AB00        R     MOV     R3,mtemp
001B AA00        R     MOV     R2,mtemp+01H
001D A900        R     MOV     R1,mtemp+02H
001F 120000      E     LCALL   ?C?CLDPTR
0022 FF                MOV     R7,A
0023 120000      R     LCALL   _TM1640WriteByte
                                           ; SOURCE LINE # 155
0026 120000      R     LCALL   TM1640Stop
                                           ; SOURCE LINE # 156
0029 120000      R     LCALL   TM1640Start
                                           ; SOURCE LINE # 157
002C 7FC1              MOV     R7,#0C1H
002E 120000      R     LCALL   _TM1640WriteByte
                                           ; SOURCE LINE # 158
0031 AB00        R     MOV     R3,mtemp
0033 AA00        R     MOV     R2,mtemp+01H
0035 A900        R     MOV     R1,mtemp+02H
0037 900001            MOV     DPTR,#01H
003A 120000      R     LCALL   L?0027
                                           ; SOURCE LINE # 159
003D 120000      R     LCALL   TM1640Stop
                                           ; SOURCE LINE # 160
0040 120000      R     LCALL   TM1640Start
                                           ; SOURCE LINE # 161
0043 7FC4              MOV     R7,#0C4H
0045 120000      R     LCALL   _TM1640WriteByte
                                           ; SOURCE LINE # 162
0048 AB00        R     MOV     R3,mtemp
004A AA00        R     MOV     R2,mtemp+01H
004C A900        R     MOV     R1,mtemp+02H
004E 900002            MOV     DPTR,#02H
0051 120000      R     LCALL   L?0027
                                           ; SOURCE LINE # 163
0054 120000      R     LCALL   TM1640Stop
                                           ; SOURCE LINE # 164
0057 120000      R     LCALL   TM1640Start
                                           ; SOURCE LINE # 165
005A 7FC3              MOV     R7,#0C3H
005C 120000      R     LCALL   _TM1640WriteByte
                                           ; SOURCE LINE # 166
005F AB00        R     MOV     R3,mtemp
0061 AA00        R     MOV     R2,mtemp+01H
0063 A900        R     MOV     R1,mtemp+02H
0065 900003            MOV     DPTR,#03H
0068 120000      R     LCALL   L?0027
C51 COMPILER V9.60.0.0   TM1640                                                            10/03/2022 19:06:34 PAGE 32  

                                           ; SOURCE LINE # 167
006B 120000      R     LCALL   TM1640Stop
                                           ; SOURCE LINE # 168
006E 120000      R     LCALL   TM1640Start
                                           ; SOURCE LINE # 169
0071 7FC6              MOV     R7,#0C6H
0073 120000      R     LCALL   _TM1640WriteByte
                                           ; SOURCE LINE # 170
0076 AB00        R     MOV     R3,mtemp
0078 AA00        R     MOV     R2,mtemp+01H
007A A900        R     MOV     R1,mtemp+02H
007C 900004            MOV     DPTR,#04H
007F 120000      R     LCALL   L?0027
                                           ; SOURCE LINE # 171
0082 120000      R     LCALL   TM1640Stop
                                           ; SOURCE LINE # 172
0085 120000      R     LCALL   TM1640Start
                                           ; SOURCE LINE # 173
0088 7F8B              MOV     R7,#08BH
008A 120000      R     LCALL   _TM1640WriteByte
                                           ; SOURCE LINE # 174
008D 020000      R     LJMP    TM1640Stop
             ; FUNCTION _TM1640_M_display (END)

             ; FUNCTION _TM1640_UM_display (BEGIN)
                                           ; SOURCE LINE # 177
0000 8B00        R     MOV     co_name,R3
0002 8A00        R     MOV     co_name+01H,R2
0004 8900        R     MOV     co_name+02H,R1
                                           ; SOURCE LINE # 178
                                           ; SOURCE LINE # 179
0006 120000      R     LCALL   TM1640Start
                                           ; SOURCE LINE # 180
0009 7F44              MOV     R7,#044H
000B 120000      R     LCALL   _TM1640WriteByte
                                           ; SOURCE LINE # 181
000E 120000      R     LCALL   TM1640Stop
                                           ; SOURCE LINE # 183
0011 120000      R     LCALL   TM1640Start
                                           ; SOURCE LINE # 184
0014 7FCB              MOV     R7,#0CBH
0016 120000      R     LCALL   _TM1640WriteByte
                                           ; SOURCE LINE # 185
0019 AB00        R     MOV     R3,co_name
001B AA00        R     MOV     R2,co_name+01H
001D A900        R     MOV     R1,co_name+02H
001F 120000      E     LCALL   ?C?CLDPTR
0022 FF                MOV     R7,A
0023 120000      R     LCALL   _TM1640WriteByte
                                           ; SOURCE LINE # 186
0026 120000      R     LCALL   TM1640Stop
                                           ; SOURCE LINE # 187
0029 7F64              MOV     R7,#064H
002B 7E00              MOV     R6,#00H
002D 120000      E     LCALL   _Delay_Some_Time
                                           ; SOURCE LINE # 189
0030 120000      R     LCALL   TM1640Start
                                           ; SOURCE LINE # 190
0033 7FCB              MOV     R7,#0CBH
0035 120000      R     LCALL   _TM1640WriteByte
                                           ; SOURCE LINE # 191
0038 120000      R     LCALL   L?0024
C51 COMPILER V9.60.0.0   TM1640                                                            10/03/2022 19:06:34 PAGE 33  

                                           ; SOURCE LINE # 192
003B 120000      R     LCALL   TM1640Stop
                                           ; SOURCE LINE # 193
003E 120000      R     LCALL   TM1640Start
                                           ; SOURCE LINE # 194
0041 7FC1              MOV     R7,#0C1H
0043 120000      R     LCALL   _TM1640WriteByte
                                           ; SOURCE LINE # 195
0046 AB00        R     MOV     R3,co_name
0048 AA00        R     MOV     R2,co_name+01H
004A A900        R     MOV     R1,co_name+02H
004C 120000      E     LCALL   ?C?CLDPTR
004F FF                MOV     R7,A
0050 120000      R     LCALL   _TM1640WriteByte
                                           ; SOURCE LINE # 196
0053 120000      R     LCALL   TM1640Stop
                                           ; SOURCE LINE # 197
0056 7F64              MOV     R7,#064H
0058 7E00              MOV     R6,#00H
005A 120000      E     LCALL   _Delay_Some_Time
                                           ; SOURCE LINE # 199
005D 120000      R     LCALL   TM1640Start
                                           ; SOURCE LINE # 200
0060 7FCB              MOV     R7,#0CBH
0062 120000      R     LCALL   _TM1640WriteByte
                                           ; SOURCE LINE # 201
0065 900002            MOV     DPTR,#02H
0068 120000      R     LCALL   L?0026
                                           ; SOURCE LINE # 202
006B 120000      R     LCALL   TM1640Stop
                                           ; SOURCE LINE # 203
006E 120000      R     LCALL   TM1640Start
                                           ; SOURCE LINE # 204
0071 7FC1              MOV     R7,#0C1H
0073 120000      R     LCALL   _TM1640WriteByte
                                           ; SOURCE LINE # 205
0076 120000      R     LCALL   L?0024
                                           ; SOURCE LINE # 206
0079 120000      R     LCALL   TM1640Stop
                                           ; SOURCE LINE # 207
007C 120000      R     LCALL   TM1640Start
                                           ; SOURCE LINE # 208
007F 7FC4              MOV     R7,#0C4H
0081 120000      R     LCALL   _TM1640WriteByte
                                           ; SOURCE LINE # 209
0084 AB00        R     MOV     R3,co_name
0086 AA00        R     MOV     R2,co_name+01H
0088 A900        R     MOV     R1,co_name+02H
008A 120000      E     LCALL   ?C?CLDPTR
008D FF                MOV     R7,A
008E 120000      R     LCALL   _TM1640WriteByte
                                           ; SOURCE LINE # 210
0091 120000      R     LCALL   TM1640Stop
                                           ; SOURCE LINE # 211
0094 7F64              MOV     R7,#064H
0096 7E00              MOV     R6,#00H
0098 120000      E     LCALL   _Delay_Some_Time
                                           ; SOURCE LINE # 213
009B 120000      R     LCALL   TM1640Start
                                           ; SOURCE LINE # 214
009E 7FCB              MOV     R7,#0CBH
00A0 120000      R     LCALL   _TM1640WriteByte
C51 COMPILER V9.60.0.0   TM1640                                                            10/03/2022 19:06:34 PAGE 34  

                                           ; SOURCE LINE # 215
00A3 AB00        R     MOV     R3,co_name
00A5 AA00        R     MOV     R2,co_name+01H
00A7 A900        R     MOV     R1,co_name+02H
00A9 900003            MOV     DPTR,#03H
00AC 120000      R     LCALL   L?0027
                                           ; SOURCE LINE # 216
00AF 120000      R     LCALL   TM1640Stop
                                           ; SOURCE LINE # 217
00B2 120000      R     LCALL   TM1640Start
                                           ; SOURCE LINE # 218
00B5 7FC1              MOV     R7,#0C1H
00B7 120000      R     LCALL   _TM1640WriteByte
                                           ; SOURCE LINE # 219
00BA AB00        R     MOV     R3,co_name
00BC AA00        R     MOV     R2,co_name+01H
00BE A900        R     MOV     R1,co_name+02H
00C0 900002            MOV     DPTR,#02H
00C3 120000      R     LCALL   L?0027
                                           ; SOURCE LINE # 220
00C6 120000      R     LCALL   TM1640Stop
                                           ; SOURCE LINE # 221
00C9 120000      R     LCALL   TM1640Start
                                           ; SOURCE LINE # 222
00CC 7FC4              MOV     R7,#0C4H
00CE 120000      R     LCALL   _TM1640WriteByte
                                           ; SOURCE LINE # 223
00D1 120000      R     LCALL   L?0025
                                           ; SOURCE LINE # 224
00D4 120000      R     LCALL   TM1640Stop
                                           ; SOURCE LINE # 225
00D7 120000      R     LCALL   TM1640Start
                                           ; SOURCE LINE # 226
00DA 7FC3              MOV     R7,#0C3H
00DC 120000      R     LCALL   _TM1640WriteByte
                                           ; SOURCE LINE # 227
00DF AB00        R     MOV     R3,co_name
00E1 AA00        R     MOV     R2,co_name+01H
00E3 A900        R     MOV     R1,co_name+02H
00E5 120000      E     LCALL   ?C?CLDPTR
00E8 FF                MOV     R7,A
00E9 120000      R     LCALL   _TM1640WriteByte
                                           ; SOURCE LINE # 228
00EC 120000      R     LCALL   TM1640Stop
                                           ; SOURCE LINE # 229
00EF 7F64              MOV     R7,#064H
00F1 7E00              MOV     R6,#00H
00F3 120000      E     LCALL   _Delay_Some_Time
                                           ; SOURCE LINE # 231
00F6 120000      R     LCALL   TM1640Start
                                           ; SOURCE LINE # 232
00F9 7FCB              MOV     R7,#0CBH
00FB 120000      R     LCALL   _TM1640WriteByte
                                           ; SOURCE LINE # 233
00FE AB00        R     MOV     R3,co_name
0100 AA00        R     MOV     R2,co_name+01H
0102 A900        R     MOV     R1,co_name+02H
0104 900004            MOV     DPTR,#04H
0107 120000      R     LCALL   L?0027
                                           ; SOURCE LINE # 234
010A 120000      R     LCALL   TM1640Stop
                                           ; SOURCE LINE # 235
C51 COMPILER V9.60.0.0   TM1640                                                            10/03/2022 19:06:34 PAGE 35  

010D 120000      R     LCALL   TM1640Start
                                           ; SOURCE LINE # 236
0110 7FC1              MOV     R7,#0C1H
0112 120000      R     LCALL   _TM1640WriteByte
                                           ; SOURCE LINE # 237
0115 AB00        R     MOV     R3,co_name
0117 AA00        R     MOV     R2,co_name+01H
0119 A900        R     MOV     R1,co_name+02H
011B 900003            MOV     DPTR,#03H
011E 120000      R     LCALL   L?0027
                                           ; SOURCE LINE # 238
0121 120000      R     LCALL   TM1640Stop
                                           ; SOURCE LINE # 239
0124 120000      R     LCALL   TM1640Start
                                           ; SOURCE LINE # 240
0127 7FC4              MOV     R7,#0C4H
0129 120000      R     LCALL   _TM1640WriteByte
                                           ; SOURCE LINE # 241
012C AB00        R     MOV     R3,co_name
012E AA00        R     MOV     R2,co_name+01H
0130 A900        R     MOV     R1,co_name+02H
0132 900002            MOV     DPTR,#02H
0135 120000      R     LCALL   L?0027
                                           ; SOURCE LINE # 242
0138 120000      R     LCALL   TM1640Stop
                                           ; SOURCE LINE # 243
013B 120000      R     LCALL   TM1640Start
                                           ; SOURCE LINE # 244
013E 7FC3              MOV     R7,#0C3H
0140 120000      R     LCALL   _TM1640WriteByte
                                           ; SOURCE LINE # 245
0143 120000      R     LCALL   L?0025
                                           ; SOURCE LINE # 246
0146 120000      R     LCALL   TM1640Stop
                                           ; SOURCE LINE # 247
0149 120000      R     LCALL   TM1640Start
                                           ; SOURCE LINE # 248
014C 7FC6              MOV     R7,#0C6H
014E 120000      R     LCALL   _TM1640WriteByte
                                           ; SOURCE LINE # 249
0151 AB00        R     MOV     R3,co_name
0153 AA00        R     MOV     R2,co_name+01H
0155 A900        R     MOV     R1,co_name+02H
0157 120000      E     LCALL   ?C?CLDPTR
015A FF                MOV     R7,A
015B 120000      R     LCALL   _TM1640WriteByte
                                           ; SOURCE LINE # 250
015E 120000      R     LCALL   TM1640Stop
                                           ; SOURCE LINE # 251
0161 7F64              MOV     R7,#064H
0163 7E00              MOV     R6,#00H
0165 120000      E     LCALL   _Delay_Some_Time
                                           ; SOURCE LINE # 253
0168 120000      R     LCALL   TM1640Start
                                           ; SOURCE LINE # 254
016B 7FCB              MOV     R7,#0CBH
016D 120000      R     LCALL   _TM1640WriteByte
                                           ; SOURCE LINE # 255
0170 AB00        R     MOV     R3,co_name
0172 AA00        R     MOV     R2,co_name+01H
0174 A900        R     MOV     R1,co_name+02H
0176 900005            MOV     DPTR,#05H
C51 COMPILER V9.60.0.0   TM1640                                                            10/03/2022 19:06:34 PAGE 36  

0179 120000      R     LCALL   L?0027
                                           ; SOURCE LINE # 256
017C 120000      R     LCALL   TM1640Stop
                                           ; SOURCE LINE # 257
017F 120000      R     LCALL   TM1640Start
                                           ; SOURCE LINE # 258
0182 7FC1              MOV     R7,#0C1H
0184 120000      R     LCALL   _TM1640WriteByte
                                           ; SOURCE LINE # 259
0187 AB00        R     MOV     R3,co_name
0189 AA00        R     MOV     R2,co_name+01H
018B A900        R     MOV     R1,co_name+02H
018D 900004            MOV     DPTR,#04H
0190 120000      R     LCALL   L?0027
                                           ; SOURCE LINE # 260
0193 120000      R     LCALL   TM1640Stop
                                           ; SOURCE LINE # 261
0196 120000      R     LCALL   TM1640Start
                                           ; SOURCE LINE # 262
0199 7FC4              MOV     R7,#0C4H
019B 120000      R     LCALL   _TM1640WriteByte
                                           ; SOURCE LINE # 263
019E AB00        R     MOV     R3,co_name
01A0 AA00        R     MOV     R2,co_name+01H
01A2 A900        R     MOV     R1,co_name+02H
01A4 900003            MOV     DPTR,#03H
01A7 120000      R     LCALL   L?0027
                                           ; SOURCE LINE # 264
01AA 120000      R     LCALL   TM1640Stop
                                           ; SOURCE LINE # 265
01AD 120000      R     LCALL   TM1640Start
                                           ; SOURCE LINE # 266
01B0 7FC3              MOV     R7,#0C3H
01B2 120000      R     LCALL   _TM1640WriteByte
                                           ; SOURCE LINE # 267
01B5 AB00        R     MOV     R3,co_name
01B7 AA00        R     MOV     R2,co_name+01H
01B9 A900        R     MOV     R1,co_name+02H
01BB 900002            MOV     DPTR,#02H
01BE 120000      R     LCALL   L?0027
                                           ; SOURCE LINE # 268
01C1 120000      R     LCALL   TM1640Stop
                                           ; SOURCE LINE # 269
01C4 120000      R     LCALL   TM1640Start
                                           ; SOURCE LINE # 270
01C7 7FC6              MOV     R7,#0C6H
01C9 120000      R     LCALL   _TM1640WriteByte
                                           ; SOURCE LINE # 271
01CC 120000      R     LCALL   L?0025
                                           ; SOURCE LINE # 272
01CF 120000      R     LCALL   TM1640Stop
                                           ; SOURCE LINE # 273
01D2 120000      R     LCALL   TM1640Start
                                           ; SOURCE LINE # 274
01D5 7FC5              MOV     R7,#0C5H
01D7 120000      R     LCALL   _TM1640WriteByte
                                           ; SOURCE LINE # 275
01DA AB00        R     MOV     R3,co_name
01DC AA00        R     MOV     R2,co_name+01H
01DE A900        R     MOV     R1,co_name+02H
01E0 120000      E     LCALL   ?C?CLDPTR
01E3 FF                MOV     R7,A
C51 COMPILER V9.60.0.0   TM1640                                                            10/03/2022 19:06:34 PAGE 37  

01E4 120000      R     LCALL   _TM1640WriteByte
                                           ; SOURCE LINE # 276
01E7 120000      R     LCALL   TM1640Stop
                                           ; SOURCE LINE # 277
01EA 7F64              MOV     R7,#064H
01EC 7E00              MOV     R6,#00H
01EE 120000      E     LCALL   _Delay_Some_Time
                                           ; SOURCE LINE # 279
01F1 120000      R     LCALL   TM1640Start
                                           ; SOURCE LINE # 280
01F4 7FCB              MOV     R7,#0CBH
01F6 120000      R     LCALL   _TM1640WriteByte
                                           ; SOURCE LINE # 281
01F9 AB00        R     MOV     R3,co_name
01FB AA00        R     MOV     R2,co_name+01H
01FD A900        R     MOV     R1,co_name+02H
01FF 900006            MOV     DPTR,#06H
0202 120000      R     LCALL   L?0027
                                           ; SOURCE LINE # 282
0205 120000      R     LCALL   TM1640Stop
                                           ; SOURCE LINE # 283
0208 120000      R     LCALL   TM1640Start
                                           ; SOURCE LINE # 284
020B 7FC1              MOV     R7,#0C1H
020D 120000      R     LCALL   _TM1640WriteByte
                                           ; SOURCE LINE # 285
0210 AB00        R     MOV     R3,co_name
0212 AA00        R     MOV     R2,co_name+01H
0214 A900        R     MOV     R1,co_name+02H
0216 900005            MOV     DPTR,#05H
0219 120000      R     LCALL   L?0027
                                           ; SOURCE LINE # 286
021C 120000      R     LCALL   TM1640Stop
                                           ; SOURCE LINE # 287
021F 120000      R     LCALL   TM1640Start
                                           ; SOURCE LINE # 288
0222 7FC4              MOV     R7,#0C4H
0224 120000      R     LCALL   _TM1640WriteByte
                                           ; SOURCE LINE # 289
0227 AB00        R     MOV     R3,co_name
0229 AA00        R     MOV     R2,co_name+01H
022B A900        R     MOV     R1,co_name+02H
022D 900004            MOV     DPTR,#04H
0230 120000      R     LCALL   L?0027
                                           ; SOURCE LINE # 290
0233 120000      R     LCALL   TM1640Stop
                                           ; SOURCE LINE # 291
0236 120000      R     LCALL   TM1640Start
                                           ; SOURCE LINE # 292
0239 7FC3              MOV     R7,#0C3H
023B 120000      R     LCALL   _TM1640WriteByte
                                           ; SOURCE LINE # 293
023E AB00        R     MOV     R3,co_name
0240 AA00        R     MOV     R2,co_name+01H
0242 A900        R     MOV     R1,co_name+02H
0244 900003            MOV     DPTR,#03H
0247 120000      R     LCALL   L?0027
                                           ; SOURCE LINE # 294
024A 120000      R     LCALL   TM1640Stop
                                           ; SOURCE LINE # 295
024D 120000      R     LCALL   TM1640Start
                                           ; SOURCE LINE # 296
C51 COMPILER V9.60.0.0   TM1640                                                            10/03/2022 19:06:34 PAGE 38  

0250 7FC6              MOV     R7,#0C6H
0252 120000      R     LCALL   _TM1640WriteByte
                                           ; SOURCE LINE # 297
0255 AB00        R     MOV     R3,co_name
0257 AA00        R     MOV     R2,co_name+01H
0259 A900        R     MOV     R1,co_name+02H
025B 900002            MOV     DPTR,#02H
025E 120000      R     LCALL   L?0027
                                           ; SOURCE LINE # 298
0261 120000      R     LCALL   TM1640Stop
                                           ; SOURCE LINE # 299
0264 120000      R     LCALL   TM1640Start
                                           ; SOURCE LINE # 300
0267 7FC5              MOV     R7,#0C5H
0269 120000      R     LCALL   _TM1640WriteByte
                                           ; SOURCE LINE # 301
026C 120000      R     LCALL   L?0025
                                           ; SOURCE LINE # 302
026F 120000      R     LCALL   TM1640Stop
                                           ; SOURCE LINE # 303
0272 120000      R     LCALL   TM1640Start
                                           ; SOURCE LINE # 304
0275 7FC8              MOV     R7,#0C8H
0277 120000      R     LCALL   _TM1640WriteByte
                                           ; SOURCE LINE # 305
027A AB00        R     MOV     R3,co_name
027C AA00        R     MOV     R2,co_name+01H
027E A900        R     MOV     R1,co_name+02H
0280 120000      E     LCALL   ?C?CLDPTR
0283 FF                MOV     R7,A
0284 120000      R     LCALL   _TM1640WriteByte
                                           ; SOURCE LINE # 306
0287 120000      R     LCALL   TM1640Stop
                                           ; SOURCE LINE # 307
028A 7F64              MOV     R7,#064H
028C 7E00              MOV     R6,#00H
028E 120000      E     LCALL   _Delay_Some_Time
                                           ; SOURCE LINE # 309
0291 120000      R     LCALL   TM1640Start
                                           ; SOURCE LINE # 310
0294 7FCB              MOV     R7,#0CBH
0296 120000      R     LCALL   _TM1640WriteByte
                                           ; SOURCE LINE # 311
0299 AB00        R     MOV     R3,co_name
029B AA00        R     MOV     R2,co_name+01H
029D A900        R     MOV     R1,co_name+02H
029F 900007            MOV     DPTR,#07H
02A2 120000      R     LCALL   L?0027
                                           ; SOURCE LINE # 312
02A5 120000      R     LCALL   TM1640Stop
                                           ; SOURCE LINE # 313
02A8 120000      R     LCALL   TM1640Start
                                           ; SOURCE LINE # 314
02AB 7FC1              MOV     R7,#0C1H
02AD 120000      R     LCALL   _TM1640WriteByte
                                           ; SOURCE LINE # 315
02B0 AB00        R     MOV     R3,co_name
02B2 AA00        R     MOV     R2,co_name+01H
02B4 A900        R     MOV     R1,co_name+02H
02B6 900006            MOV     DPTR,#06H
02B9 120000      R     LCALL   L?0027
                                           ; SOURCE LINE # 316
C51 COMPILER V9.60.0.0   TM1640                                                            10/03/2022 19:06:34 PAGE 39  

02BC 120000      R     LCALL   TM1640Stop
                                           ; SOURCE LINE # 317
02BF 120000      R     LCALL   TM1640Start
                                           ; SOURCE LINE # 318
02C2 7FC4              MOV     R7,#0C4H
02C4 120000      R     LCALL   _TM1640WriteByte
                                           ; SOURCE LINE # 319
02C7 AB00        R     MOV     R3,co_name
02C9 AA00        R     MOV     R2,co_name+01H
02CB A900        R     MOV     R1,co_name+02H
02CD 900005            MOV     DPTR,#05H
02D0 120000      R     LCALL   L?0027
                                           ; SOURCE LINE # 320
02D3 120000      R     LCALL   TM1640Stop
                                           ; SOURCE LINE # 321
02D6 120000      R     LCALL   TM1640Start
                                           ; SOURCE LINE # 322
02D9 7FC3              MOV     R7,#0C3H
02DB 120000      R     LCALL   _TM1640WriteByte
                                           ; SOURCE LINE # 323
02DE AB00        R     MOV     R3,co_name
02E0 AA00        R     MOV     R2,co_name+01H
02E2 A900        R     MOV     R1,co_name+02H
02E4 900004            MOV     DPTR,#04H
02E7 120000      R     LCALL   L?0027
                                           ; SOURCE LINE # 324
02EA 120000      R     LCALL   TM1640Stop
                                           ; SOURCE LINE # 325
02ED 120000      R     LCALL   TM1640Start
                                           ; SOURCE LINE # 326
02F0 7FC6              MOV     R7,#0C6H
02F2 120000      R     LCALL   _TM1640WriteByte
                                           ; SOURCE LINE # 327
02F5 AB00        R     MOV     R3,co_name
02F7 AA00        R     MOV     R2,co_name+01H
02F9 A900        R     MOV     R1,co_name+02H
02FB 900003            MOV     DPTR,#03H
02FE 120000      R     LCALL   L?0027
                                           ; SOURCE LINE # 328
0301 120000      R     LCALL   TM1640Stop
                                           ; SOURCE LINE # 329
0304 120000      R     LCALL   TM1640Start
                                           ; SOURCE LINE # 330
0307 7FC5              MOV     R7,#0C5H
0309 120000      R     LCALL   _TM1640WriteByte
                                           ; SOURCE LINE # 331
030C AB00        R     MOV     R3,co_name
030E AA00        R     MOV     R2,co_name+01H
0310 A900        R     MOV     R1,co_name+02H
0312 900002            MOV     DPTR,#02H
0315 120000      R     LCALL   L?0027
                                           ; SOURCE LINE # 332
0318 120000      R     LCALL   TM1640Stop
                                           ; SOURCE LINE # 333
031B 120000      R     LCALL   TM1640Start
                                           ; SOURCE LINE # 334
031E 7FC8              MOV     R7,#0C8H
0320 120000      R     LCALL   _TM1640WriteByte
                                           ; SOURCE LINE # 335
0323 120000      R     LCALL   L?0025
                                           ; SOURCE LINE # 336
0326 120000      R     LCALL   TM1640Stop
C51 COMPILER V9.60.0.0   TM1640                                                            10/03/2022 19:06:34 PAGE 40  

                                           ; SOURCE LINE # 337
0329 120000      R     LCALL   TM1640Start
                                           ; SOURCE LINE # 338
032C 7FC7              MOV     R7,#0C7H
032E 120000      R     LCALL   _TM1640WriteByte
                                           ; SOURCE LINE # 339
0331 AB00        R     MOV     R3,co_name
0333 AA00        R     MOV     R2,co_name+01H
0335 A900        R     MOV     R1,co_name+02H
0337 120000      E     LCALL   ?C?CLDPTR
033A FF                MOV     R7,A
033B 120000      R     LCALL   _TM1640WriteByte
                                           ; SOURCE LINE # 340
033E 120000      R     LCALL   TM1640Stop
                                           ; SOURCE LINE # 341
0341 7F64              MOV     R7,#064H
0343 7E00              MOV     R6,#00H
0345 120000      E     LCALL   _Delay_Some_Time
                                           ; SOURCE LINE # 343
0348 120000      R     LCALL   TM1640Start
                                           ; SOURCE LINE # 344
034B 7FCB              MOV     R7,#0CBH
034D 120000      R     LCALL   _TM1640WriteByte
                                           ; SOURCE LINE # 345
0350 AB00        R     MOV     R3,co_name
0352 AA00        R     MOV     R2,co_name+01H
0354 A900        R     MOV     R1,co_name+02H
0356 900008            MOV     DPTR,#08H
0359 120000      R     LCALL   L?0027
                                           ; SOURCE LINE # 346
035C 120000      R     LCALL   TM1640Stop
                                           ; SOURCE LINE # 347
035F 120000      R     LCALL   TM1640Start
                                           ; SOURCE LINE # 348
0362 7FC1              MOV     R7,#0C1H
0364 120000      R     LCALL   _TM1640WriteByte
                                           ; SOURCE LINE # 349
0367 AB00        R     MOV     R3,co_name
0369 AA00        R     MOV     R2,co_name+01H
036B A900        R     MOV     R1,co_name+02H
036D 900007            MOV     DPTR,#07H
0370 120000      R     LCALL   L?0027
                                           ; SOURCE LINE # 350
0373 120000      R     LCALL   TM1640Stop
                                           ; SOURCE LINE # 351
0376 120000      R     LCALL   TM1640Start
                                           ; SOURCE LINE # 352
0379 7FC4              MOV     R7,#0C4H
037B 120000      R     LCALL   _TM1640WriteByte
                                           ; SOURCE LINE # 353
037E AB00        R     MOV     R3,co_name
0380 AA00        R     MOV     R2,co_name+01H
0382 A900        R     MOV     R1,co_name+02H
0384 900006            MOV     DPTR,#06H
0387 120000      R     LCALL   L?0027
                                           ; SOURCE LINE # 354
038A 120000      R     LCALL   TM1640Stop
                                           ; SOURCE LINE # 355
038D 120000      R     LCALL   TM1640Start
                                           ; SOURCE LINE # 356
0390 7FC3              MOV     R7,#0C3H
0392 120000      R     LCALL   _TM1640WriteByte
C51 COMPILER V9.60.0.0   TM1640                                                            10/03/2022 19:06:34 PAGE 41  

                                           ; SOURCE LINE # 357
0395 AB00        R     MOV     R3,co_name
0397 AA00        R     MOV     R2,co_name+01H
0399 A900        R     MOV     R1,co_name+02H
039B 900005            MOV     DPTR,#05H
039E 120000      R     LCALL   L?0027
                                           ; SOURCE LINE # 358
03A1 120000      R     LCALL   TM1640Stop
                                           ; SOURCE LINE # 359
03A4 120000      R     LCALL   TM1640Start
                                           ; SOURCE LINE # 360
03A7 7FC6              MOV     R7,#0C6H
03A9 120000      R     LCALL   _TM1640WriteByte
                                           ; SOURCE LINE # 361
03AC AB00        R     MOV     R3,co_name
03AE AA00        R     MOV     R2,co_name+01H
03B0 A900        R     MOV     R1,co_name+02H
03B2 900004            MOV     DPTR,#04H
03B5 120000      R     LCALL   L?0027
                                           ; SOURCE LINE # 362
03B8 120000      R     LCALL   TM1640Stop
                                           ; SOURCE LINE # 363
03BB 120000      R     LCALL   TM1640Start
                                           ; SOURCE LINE # 364
03BE 7FC5              MOV     R7,#0C5H
03C0 120000      R     LCALL   _TM1640WriteByte
                                           ; SOURCE LINE # 365
03C3 AB00        R     MOV     R3,co_name
03C5 AA00        R     MOV     R2,co_name+01H
03C7 A900        R     MOV     R1,co_name+02H
03C9 900003            MOV     DPTR,#03H
03CC 120000      R     LCALL   L?0027
                                           ; SOURCE LINE # 366
03CF 120000      R     LCALL   TM1640Stop
                                           ; SOURCE LINE # 367
03D2 120000      R     LCALL   TM1640Start
                                           ; SOURCE LINE # 368
03D5 7FC8              MOV     R7,#0C8H
03D7 120000      R     LCALL   _TM1640WriteByte
                                           ; SOURCE LINE # 369
03DA AB00        R     MOV     R3,co_name
03DC AA00        R     MOV     R2,co_name+01H
03DE A900        R     MOV     R1,co_name+02H
03E0 900002            MOV     DPTR,#02H
03E3 120000      R     LCALL   L?0027
                                           ; SOURCE LINE # 370
03E6 120000      R     LCALL   TM1640Stop
                                           ; SOURCE LINE # 371
03E9 120000      R     LCALL   TM1640Start
                                           ; SOURCE LINE # 372
03EC 7FC7              MOV     R7,#0C7H
03EE 120000      R     LCALL   _TM1640WriteByte
                                           ; SOURCE LINE # 373
03F1 120000      R     LCALL   L?0025
                                           ; SOURCE LINE # 374
03F4 120000      R     LCALL   TM1640Stop
                                           ; SOURCE LINE # 375
03F7 120000      R     LCALL   TM1640Start
                                           ; SOURCE LINE # 376
03FA 7FCA              MOV     R7,#0CAH
03FC 120000      R     LCALL   _TM1640WriteByte
                                           ; SOURCE LINE # 377
C51 COMPILER V9.60.0.0   TM1640                                                            10/03/2022 19:06:34 PAGE 42  

03FF AB00        R     MOV     R3,co_name
0401 AA00        R     MOV     R2,co_name+01H
0403 A900        R     MOV     R1,co_name+02H
0405 120000      E     LCALL   ?C?CLDPTR
0408 FF                MOV     R7,A
0409 120000      R     LCALL   _TM1640WriteByte
                                           ; SOURCE LINE # 378
040C 120000      R     LCALL   TM1640Stop
                                           ; SOURCE LINE # 379
040F 7F64              MOV     R7,#064H
0411 7E00              MOV     R6,#00H
0413 120000      E     LCALL   _Delay_Some_Time
                                           ; SOURCE LINE # 381
0416 120000      R     LCALL   TM1640Start
                                           ; SOURCE LINE # 382
0419 7FCB              MOV     R7,#0CBH
041B 120000      R     LCALL   _TM1640WriteByte
                                           ; SOURCE LINE # 383
041E AB00        R     MOV     R3,co_name
0420 AA00        R     MOV     R2,co_name+01H
0422 A900        R     MOV     R1,co_name+02H
0424 900009            MOV     DPTR,#09H
0427 120000      R     LCALL   L?0027
                                           ; SOURCE LINE # 384
042A 120000      R     LCALL   TM1640Stop
                                           ; SOURCE LINE # 385
042D 120000      R     LCALL   TM1640Start
                                           ; SOURCE LINE # 386
0430 7FC1              MOV     R7,#0C1H
0432 120000      R     LCALL   _TM1640WriteByte
                                           ; SOURCE LINE # 387
0435 AB00        R     MOV     R3,co_name
0437 AA00        R     MOV     R2,co_name+01H
0439 A900        R     MOV     R1,co_name+02H
043B 900008            MOV     DPTR,#08H
043E 120000      R     LCALL   L?0027
                                           ; SOURCE LINE # 388
0441 120000      R     LCALL   TM1640Stop
                                           ; SOURCE LINE # 389
0444 120000      R     LCALL   TM1640Start
                                           ; SOURCE LINE # 390
0447 7FC4              MOV     R7,#0C4H
0449 120000      R     LCALL   _TM1640WriteByte
                                           ; SOURCE LINE # 391
044C AB00        R     MOV     R3,co_name
044E AA00        R     MOV     R2,co_name+01H
0450 A900        R     MOV     R1,co_name+02H
0452 900007            MOV     DPTR,#07H
0455 120000      R     LCALL   L?0027
                                           ; SOURCE LINE # 392
0458 120000      R     LCALL   TM1640Stop
                                           ; SOURCE LINE # 393
045B 120000      R     LCALL   TM1640Start
                                           ; SOURCE LINE # 394
045E 7FC3              MOV     R7,#0C3H
0460 120000      R     LCALL   _TM1640WriteByte
                                           ; SOURCE LINE # 395
0463 AB00        R     MOV     R3,co_name
0465 AA00        R     MOV     R2,co_name+01H
0467 A900        R     MOV     R1,co_name+02H
0469 900006            MOV     DPTR,#06H
046C 120000      R     LCALL   L?0027
C51 COMPILER V9.60.0.0   TM1640                                                            10/03/2022 19:06:34 PAGE 43  

                                           ; SOURCE LINE # 396
046F 120000      R     LCALL   TM1640Stop
                                           ; SOURCE LINE # 397
0472 120000      R     LCALL   TM1640Start
                                           ; SOURCE LINE # 398
0475 7FC6              MOV     R7,#0C6H
0477 120000      R     LCALL   _TM1640WriteByte
                                           ; SOURCE LINE # 399
047A AB00        R     MOV     R3,co_name
047C AA00        R     MOV     R2,co_name+01H
047E A900        R     MOV     R1,co_name+02H
0480 900005            MOV     DPTR,#05H
0483 120000      R     LCALL   L?0027
                                           ; SOURCE LINE # 400
0486 120000      R     LCALL   TM1640Stop
                                           ; SOURCE LINE # 401
0489 120000      R     LCALL   TM1640Start
                                           ; SOURCE LINE # 402
048C 7FC5              MOV     R7,#0C5H
048E 120000      R     LCALL   _TM1640WriteByte
                                           ; SOURCE LINE # 403
0491 AB00        R     MOV     R3,co_name
0493 AA00        R     MOV     R2,co_name+01H
0495 A900        R     MOV     R1,co_name+02H
0497 900004            MOV     DPTR,#04H
049A 120000      R     LCALL   L?0027
                                           ; SOURCE LINE # 404
049D 120000      R     LCALL   TM1640Stop
                                           ; SOURCE LINE # 405
04A0 120000      R     LCALL   TM1640Start
                                           ; SOURCE LINE # 406
04A3 7FC8              MOV     R7,#0C8H
04A5 120000      R     LCALL   _TM1640WriteByte
                                           ; SOURCE LINE # 407
04A8 AB00        R     MOV     R3,co_name
04AA AA00        R     MOV     R2,co_name+01H
04AC A900        R     MOV     R1,co_name+02H
04AE 900003            MOV     DPTR,#03H
04B1 120000      R     LCALL   L?0027
                                           ; SOURCE LINE # 408
04B4 120000      R     LCALL   TM1640Stop
                                           ; SOURCE LINE # 409
04B7 120000      R     LCALL   TM1640Start
                                           ; SOURCE LINE # 410
04BA 7FC7              MOV     R7,#0C7H
04BC 120000      R     LCALL   _TM1640WriteByte
                                           ; SOURCE LINE # 411
04BF AB00        R     MOV     R3,co_name
04C1 AA00        R     MOV     R2,co_name+01H
04C3 A900        R     MOV     R1,co_name+02H
04C5 900002            MOV     DPTR,#02H
04C8 120000      R     LCALL   L?0027
                                           ; SOURCE LINE # 412
04CB 120000      R     LCALL   TM1640Stop
                                           ; SOURCE LINE # 413
04CE 120000      R     LCALL   TM1640Start
                                           ; SOURCE LINE # 414
04D1 7FCA              MOV     R7,#0CAH
04D3 120000      R     LCALL   _TM1640WriteByte
                                           ; SOURCE LINE # 415
04D6 120000      R     LCALL   L?0025
                                           ; SOURCE LINE # 416
C51 COMPILER V9.60.0.0   TM1640                                                            10/03/2022 19:06:34 PAGE 44  

04D9 120000      R     LCALL   TM1640Stop
                                           ; SOURCE LINE # 417
04DC 120000      R     LCALL   TM1640Start
                                           ; SOURCE LINE # 418
04DF 7FC9              MOV     R7,#0C9H
04E1 120000      R     LCALL   _TM1640WriteByte
                                           ; SOURCE LINE # 419
04E4 AB00        R     MOV     R3,co_name
04E6 AA00        R     MOV     R2,co_name+01H
04E8 A900        R     MOV     R1,co_name+02H
04EA 120000      E     LCALL   ?C?CLDPTR
04ED FF                MOV     R7,A
04EE 120000      R     LCALL   _TM1640WriteByte
                                           ; SOURCE LINE # 420
04F1 120000      R     LCALL   TM1640Stop
                                           ; SOURCE LINE # 424
04F4 7F64              MOV     R7,#064H
04F6 7E00              MOV     R6,#00H
04F8 120000      E     LCALL   _Delay_Some_Time
                                           ; SOURCE LINE # 426
04FB 120000      R     LCALL   TM1640Start
                                           ; SOURCE LINE # 427
04FE 7FCB              MOV     R7,#0CBH
0500 120000      R     LCALL   _TM1640WriteByte
                                           ; SOURCE LINE # 428
0503 AB00        R     MOV     R3,co_name
0505 AA00        R     MOV     R2,co_name+01H
0507 A900        R     MOV     R1,co_name+02H
0509 90000A            MOV     DPTR,#0AH
050C 120000      R     LCALL   L?0027
                                           ; SOURCE LINE # 429
050F 120000      R     LCALL   TM1640Stop
                                           ; SOURCE LINE # 430
0512 120000      R     LCALL   TM1640Start
                                           ; SOURCE LINE # 431
0515 7FC1              MOV     R7,#0C1H
0517 120000      R     LCALL   _TM1640WriteByte
                                           ; SOURCE LINE # 432
051A AB00        R     MOV     R3,co_name
051C AA00        R     MOV     R2,co_name+01H
051E A900        R     MOV     R1,co_name+02H
0520 900009            MOV     DPTR,#09H
0523 120000      R     LCALL   L?0027
                                           ; SOURCE LINE # 433
0526 120000      R     LCALL   TM1640Stop
                                           ; SOURCE LINE # 434
0529 120000      R     LCALL   TM1640Start
                                           ; SOURCE LINE # 435
052C 7FC4              MOV     R7,#0C4H
052E 120000      R     LCALL   _TM1640WriteByte
                                           ; SOURCE LINE # 436
0531 AB00        R     MOV     R3,co_name
0533 AA00        R     MOV     R2,co_name+01H
0535 A900        R     MOV     R1,co_name+02H
0537 900008            MOV     DPTR,#08H
053A 120000      R     LCALL   L?0027
                                           ; SOURCE LINE # 437
053D 120000      R     LCALL   TM1640Stop
                                           ; SOURCE LINE # 438
0540 120000      R     LCALL   TM1640Start
                                           ; SOURCE LINE # 439
0543 7FC3              MOV     R7,#0C3H
C51 COMPILER V9.60.0.0   TM1640                                                            10/03/2022 19:06:34 PAGE 45  

0545 120000      R     LCALL   _TM1640WriteByte
                                           ; SOURCE LINE # 440
0548 AB00        R     MOV     R3,co_name
054A AA00        R     MOV     R2,co_name+01H
054C A900        R     MOV     R1,co_name+02H
054E 900007            MOV     DPTR,#07H
0551 120000      R     LCALL   L?0027
                                           ; SOURCE LINE # 441
0554 120000      R     LCALL   TM1640Stop
                                           ; SOURCE LINE # 442
0557 120000      R     LCALL   TM1640Start
                                           ; SOURCE LINE # 443
055A 7FC6              MOV     R7,#0C6H
055C 120000      R     LCALL   _TM1640WriteByte
                                           ; SOURCE LINE # 444
055F AB00        R     MOV     R3,co_name
0561 AA00        R     MOV     R2,co_name+01H
0563 A900        R     MOV     R1,co_name+02H
0565 900006            MOV     DPTR,#06H
0568 120000      R     LCALL   L?0027
                                           ; SOURCE LINE # 445
056B 120000      R     LCALL   TM1640Stop
                                           ; SOURCE LINE # 446
056E 120000      R     LCALL   TM1640Start
                                           ; SOURCE LINE # 447
0571 7FC5              MOV     R7,#0C5H
0573 120000      R     LCALL   _TM1640WriteByte
                                           ; SOURCE LINE # 448
0576 AB00        R     MOV     R3,co_name
0578 AA00        R     MOV     R2,co_name+01H
057A A900        R     MOV     R1,co_name+02H
057C 900005            MOV     DPTR,#05H
057F 120000      R     LCALL   L?0027
                                           ; SOURCE LINE # 449
0582 120000      R     LCALL   TM1640Stop
                                           ; SOURCE LINE # 450
0585 120000      R     LCALL   TM1640Start
                                           ; SOURCE LINE # 451
0588 7FC8              MOV     R7,#0C8H
058A 120000      R     LCALL   _TM1640WriteByte
                                           ; SOURCE LINE # 452
058D AB00        R     MOV     R3,co_name
058F AA00        R     MOV     R2,co_name+01H
0591 A900        R     MOV     R1,co_name+02H
0593 900004            MOV     DPTR,#04H
0596 120000      R     LCALL   L?0027
                                           ; SOURCE LINE # 453
0599 120000      R     LCALL   TM1640Stop
                                           ; SOURCE LINE # 454
059C 120000      R     LCALL   TM1640Start
                                           ; SOURCE LINE # 455
059F 7FC7              MOV     R7,#0C7H
05A1 120000      R     LCALL   _TM1640WriteByte
                                           ; SOURCE LINE # 456
05A4 AB00        R     MOV     R3,co_name
05A6 AA00        R     MOV     R2,co_name+01H
05A8 A900        R     MOV     R1,co_name+02H
05AA 900003            MOV     DPTR,#03H
05AD 120000      R     LCALL   L?0027
                                           ; SOURCE LINE # 457
05B0 120000      R     LCALL   TM1640Stop
                                           ; SOURCE LINE # 458
C51 COMPILER V9.60.0.0   TM1640                                                            10/03/2022 19:06:34 PAGE 46  

05B3 120000      R     LCALL   TM1640Start
                                           ; SOURCE LINE # 459
05B6 7FCA              MOV     R7,#0CAH
05B8 120000      R     LCALL   _TM1640WriteByte
                                           ; SOURCE LINE # 460
05BB AB00        R     MOV     R3,co_name
05BD AA00        R     MOV     R2,co_name+01H
05BF A900        R     MOV     R1,co_name+02H
05C1 900002            MOV     DPTR,#02H
05C4 120000      R     LCALL   L?0027
                                           ; SOURCE LINE # 461
05C7 120000      R     LCALL   TM1640Stop
                                           ; SOURCE LINE # 462
05CA 120000      R     LCALL   TM1640Start
                                           ; SOURCE LINE # 463
05CD 7FC9              MOV     R7,#0C9H
05CF 120000      R     LCALL   _TM1640WriteByte
                                           ; SOURCE LINE # 464
05D2 120000      R     LCALL   L?0025
                                           ; SOURCE LINE # 465
05D5 120000      R     LCALL   TM1640Stop
                                           ; SOURCE LINE # 469
05D8 7F64              MOV     R7,#064H
05DA 7E00              MOV     R6,#00H
05DC 120000      E     LCALL   _Delay_Some_Time
                                           ; SOURCE LINE # 471
05DF 120000      R     LCALL   TM1640Start
                                           ; SOURCE LINE # 472
05E2 7FCB              MOV     R7,#0CBH
05E4 120000      R     LCALL   _TM1640WriteByte
                                           ; SOURCE LINE # 473
05E7 AB00        R     MOV     R3,co_name
05E9 AA00        R     MOV     R2,co_name+01H
05EB A900        R     MOV     R1,co_name+02H
05ED 90000B            MOV     DPTR,#0BH
05F0 120000      R     LCALL   L?0027
                                           ; SOURCE LINE # 474
05F3 120000      R     LCALL   TM1640Stop
                                           ; SOURCE LINE # 475
05F6 120000      R     LCALL   TM1640Start
                                           ; SOURCE LINE # 476
05F9 7FC1              MOV     R7,#0C1H
05FB 120000      R     LCALL   _TM1640WriteByte
                                           ; SOURCE LINE # 477
05FE AB00        R     MOV     R3,co_name
0600 AA00        R     MOV     R2,co_name+01H
0602 A900        R     MOV     R1,co_name+02H
0604 90000A            MOV     DPTR,#0AH
0607 120000      R     LCALL   L?0027
                                           ; SOURCE LINE # 478
060A 120000      R     LCALL   TM1640Stop
                                           ; SOURCE LINE # 479
060D 120000      R     LCALL   TM1640Start
                                           ; SOURCE LINE # 480
0610 7FC4              MOV     R7,#0C4H
0612 120000      R     LCALL   _TM1640WriteByte
                                           ; SOURCE LINE # 481
0615 AB00        R     MOV     R3,co_name
0617 AA00        R     MOV     R2,co_name+01H
0619 A900        R     MOV     R1,co_name+02H
061B 900009            MOV     DPTR,#09H
061E 120000      R     LCALL   L?0027
C51 COMPILER V9.60.0.0   TM1640                                                            10/03/2022 19:06:34 PAGE 47  

                                           ; SOURCE LINE # 482
0621 120000      R     LCALL   TM1640Stop
                                           ; SOURCE LINE # 483
0624 120000      R     LCALL   TM1640Start
                                           ; SOURCE LINE # 484
0627 7FC3              MOV     R7,#0C3H
0629 120000      R     LCALL   _TM1640WriteByte
                                           ; SOURCE LINE # 485
062C AB00        R     MOV     R3,co_name
062E AA00        R     MOV     R2,co_name+01H
0630 A900        R     MOV     R1,co_name+02H
0632 900008            MOV     DPTR,#08H
0635 120000      R     LCALL   L?0027
                                           ; SOURCE LINE # 486
0638 120000      R     LCALL   TM1640Stop
                                           ; SOURCE LINE # 487
063B 120000      R     LCALL   TM1640Start
                                           ; SOURCE LINE # 488
063E 7FC6              MOV     R7,#0C6H
0640 120000      R     LCALL   _TM1640WriteByte
                                           ; SOURCE LINE # 489
0643 AB00        R     MOV     R3,co_name
0645 AA00        R     MOV     R2,co_name+01H
0647 A900        R     MOV     R1,co_name+02H
0649 900007            MOV     DPTR,#07H
064C 120000      R     LCALL   L?0027
                                           ; SOURCE LINE # 490
064F 120000      R     LCALL   TM1640Stop
                                           ; SOURCE LINE # 491
0652 120000      R     LCALL   TM1640Start
                                           ; SOURCE LINE # 492
0655 7FC5              MOV     R7,#0C5H
0657 120000      R     LCALL   _TM1640WriteByte
                                           ; SOURCE LINE # 493
065A AB00        R     MOV     R3,co_name
065C AA00        R     MOV     R2,co_name+01H
065E A900        R     MOV     R1,co_name+02H
0660 900006            MOV     DPTR,#06H
0663 120000      R     LCALL   L?0027
                                           ; SOURCE LINE # 494
0666 120000      R     LCALL   TM1640Stop
                                           ; SOURCE LINE # 495
0669 120000      R     LCALL   TM1640Start
                                           ; SOURCE LINE # 496
066C 7FC8              MOV     R7,#0C8H
066E 120000      R     LCALL   _TM1640WriteByte
                                           ; SOURCE LINE # 497
0671 AB00        R     MOV     R3,co_name
0673 AA00        R     MOV     R2,co_name+01H
0675 A900        R     MOV     R1,co_name+02H
0677 900005            MOV     DPTR,#05H
067A 120000      R     LCALL   L?0027
                                           ; SOURCE LINE # 498
067D 120000      R     LCALL   TM1640Stop
                                           ; SOURCE LINE # 499
0680 120000      R     LCALL   TM1640Start
                                           ; SOURCE LINE # 500
0683 7FC7              MOV     R7,#0C7H
0685 120000      R     LCALL   _TM1640WriteByte
                                           ; SOURCE LINE # 501
0688 AB00        R     MOV     R3,co_name
068A AA00        R     MOV     R2,co_name+01H
C51 COMPILER V9.60.0.0   TM1640                                                            10/03/2022 19:06:34 PAGE 48  

068C A900        R     MOV     R1,co_name+02H
068E 900004            MOV     DPTR,#04H
0691 120000      R     LCALL   L?0027
                                           ; SOURCE LINE # 502
0694 120000      R     LCALL   TM1640Stop
                                           ; SOURCE LINE # 503
0697 120000      R     LCALL   TM1640Start
                                           ; SOURCE LINE # 504
069A 7FCA              MOV     R7,#0CAH
069C 120000      R     LCALL   _TM1640WriteByte
                                           ; SOURCE LINE # 505
069F AB00        R     MOV     R3,co_name
06A1 AA00        R     MOV     R2,co_name+01H
06A3 A900        R     MOV     R1,co_name+02H
06A5 900003            MOV     DPTR,#03H
06A8 120000      R     LCALL   L?0027
                                           ; SOURCE LINE # 506
06AB 120000      R     LCALL   TM1640Stop
                                           ; SOURCE LINE # 507
06AE 120000      R     LCALL   TM1640Start
                                           ; SOURCE LINE # 508
06B1 7FC9              MOV     R7,#0C9H
06B3 120000      R     LCALL   _TM1640WriteByte
                                           ; SOURCE LINE # 509
06B6 AB00        R     MOV     R3,co_name
06B8 AA00        R     MOV     R2,co_name+01H
06BA A900        R     MOV     R1,co_name+02H
06BC 900002            MOV     DPTR,#02H
06BF 120000      R     LCALL   L?0027
                                           ; SOURCE LINE # 510
06C2 120000      R     LCALL   TM1640Stop
                                           ; SOURCE LINE # 514
06C5 7F64              MOV     R7,#064H
06C7 7E00              MOV     R6,#00H
06C9 120000      E     LCALL   _Delay_Some_Time
                                           ; SOURCE LINE # 516
06CC 120000      R     LCALL   TM1640Start
                                           ; SOURCE LINE # 517
06CF 7FCB              MOV     R7,#0CBH
06D1 120000      R     LCALL   _TM1640WriteByte
                                           ; SOURCE LINE # 518
06D4 AB00        R     MOV     R3,co_name
06D6 AA00        R     MOV     R2,co_name+01H
06D8 A900        R     MOV     R1,co_name+02H
06DA 90000C            MOV     DPTR,#0CH
06DD 120000      R     LCALL   L?0027
                                           ; SOURCE LINE # 519
06E0 120000      R     LCALL   TM1640Stop
                                           ; SOURCE LINE # 520
06E3 120000      R     LCALL   TM1640Start
                                           ; SOURCE LINE # 521
06E6 7FC1              MOV     R7,#0C1H
06E8 120000      R     LCALL   _TM1640WriteByte
                                           ; SOURCE LINE # 522
06EB AB00        R     MOV     R3,co_name
06ED AA00        R     MOV     R2,co_name+01H
06EF A900        R     MOV     R1,co_name+02H
06F1 90000B            MOV     DPTR,#0BH
06F4 120000      R     LCALL   L?0027
                                           ; SOURCE LINE # 523
06F7 120000      R     LCALL   TM1640Stop
                                           ; SOURCE LINE # 524
C51 COMPILER V9.60.0.0   TM1640                                                            10/03/2022 19:06:34 PAGE 49  

06FA 120000      R     LCALL   TM1640Start
                                           ; SOURCE LINE # 525
06FD 7FC4              MOV     R7,#0C4H
06FF 120000      R     LCALL   _TM1640WriteByte
                                           ; SOURCE LINE # 526
0702 AB00        R     MOV     R3,co_name
0704 AA00        R     MOV     R2,co_name+01H
0706 A900        R     MOV     R1,co_name+02H
0708 90000A            MOV     DPTR,#0AH
070B 120000      R     LCALL   L?0027
                                           ; SOURCE LINE # 527
070E 120000      R     LCALL   TM1640Stop
                                           ; SOURCE LINE # 528
0711 120000      R     LCALL   TM1640Start
                                           ; SOURCE LINE # 529
0714 7FC3              MOV     R7,#0C3H
0716 120000      R     LCALL   _TM1640WriteByte
                                           ; SOURCE LINE # 530
0719 AB00        R     MOV     R3,co_name
071B AA00        R     MOV     R2,co_name+01H
071D A900        R     MOV     R1,co_name+02H
071F 900009            MOV     DPTR,#09H
0722 120000      R     LCALL   L?0027
                                           ; SOURCE LINE # 531
0725 120000      R     LCALL   TM1640Stop
                                           ; SOURCE LINE # 532
0728 120000      R     LCALL   TM1640Start
                                           ; SOURCE LINE # 533
072B 7FC6              MOV     R7,#0C6H
072D 120000      R     LCALL   _TM1640WriteByte
                                           ; SOURCE LINE # 534
0730 AB00        R     MOV     R3,co_name
0732 AA00        R     MOV     R2,co_name+01H
0734 A900        R     MOV     R1,co_name+02H
0736 900008            MOV     DPTR,#08H
0739 120000      R     LCALL   L?0027
                                           ; SOURCE LINE # 535
073C 120000      R     LCALL   TM1640Stop
                                           ; SOURCE LINE # 536
073F 120000      R     LCALL   TM1640Start
                                           ; SOURCE LINE # 537
0742 7FC5              MOV     R7,#0C5H
0744 120000      R     LCALL   _TM1640WriteByte
                                           ; SOURCE LINE # 538
0747 AB00        R     MOV     R3,co_name
0749 AA00        R     MOV     R2,co_name+01H
074B A900        R     MOV     R1,co_name+02H
074D 900007            MOV     DPTR,#07H
0750 120000      R     LCALL   L?0027
                                           ; SOURCE LINE # 539
0753 120000      R     LCALL   TM1640Stop
                                           ; SOURCE LINE # 540
0756 120000      R     LCALL   TM1640Start
                                           ; SOURCE LINE # 541
0759 7FC8              MOV     R7,#0C8H
075B 120000      R     LCALL   _TM1640WriteByte
                                           ; SOURCE LINE # 542
075E AB00        R     MOV     R3,co_name
0760 AA00        R     MOV     R2,co_name+01H
0762 A900        R     MOV     R1,co_name+02H
0764 900006            MOV     DPTR,#06H
0767 120000      R     LCALL   L?0027
C51 COMPILER V9.60.0.0   TM1640                                                            10/03/2022 19:06:34 PAGE 50  

                                           ; SOURCE LINE # 543
076A 120000      R     LCALL   TM1640Stop
                                           ; SOURCE LINE # 544
076D 120000      R     LCALL   TM1640Start
                                           ; SOURCE LINE # 545
0770 7FC7              MOV     R7,#0C7H
0772 120000      R     LCALL   _TM1640WriteByte
                                           ; SOURCE LINE # 546
0775 AB00        R     MOV     R3,co_name
0777 AA00        R     MOV     R2,co_name+01H
0779 A900        R     MOV     R1,co_name+02H
077B 900005            MOV     DPTR,#05H
077E 120000      R     LCALL   L?0027
                                           ; SOURCE LINE # 547
0781 120000      R     LCALL   TM1640Stop
                                           ; SOURCE LINE # 548
0784 120000      R     LCALL   TM1640Start
                                           ; SOURCE LINE # 549
0787 7FCA              MOV     R7,#0CAH
0789 120000      R     LCALL   _TM1640WriteByte
                                           ; SOURCE LINE # 550
078C AB00        R     MOV     R3,co_name
078E AA00        R     MOV     R2,co_name+01H
0790 A900        R     MOV     R1,co_name+02H
0792 900004            MOV     DPTR,#04H
0795 120000      R     LCALL   L?0027
                                           ; SOURCE LINE # 551
0798 120000      R     LCALL   TM1640Stop
                                           ; SOURCE LINE # 552
079B 120000      R     LCALL   TM1640Start
                                           ; SOURCE LINE # 553
079E 7FC9              MOV     R7,#0C9H
07A0 120000      R     LCALL   _TM1640WriteByte
                                           ; SOURCE LINE # 554
07A3 AB00        R     MOV     R3,co_name
07A5 AA00        R     MOV     R2,co_name+01H
07A7 A900        R     MOV     R1,co_name+02H
07A9 900003            MOV     DPTR,#03H
07AC 120000      R     LCALL   L?0027
                                           ; SOURCE LINE # 555
07AF 120000      R     LCALL   TM1640Stop
                                           ; SOURCE LINE # 559
07B2 7F64              MOV     R7,#064H
07B4 7E00              MOV     R6,#00H
07B6 120000      E     LCALL   _Delay_Some_Time
                                           ; SOURCE LINE # 561
07B9 120000      R     LCALL   TM1640Start
                                           ; SOURCE LINE # 562
07BC 7FCB              MOV     R7,#0CBH
07BE 120000      R     LCALL   _TM1640WriteByte
                                           ; SOURCE LINE # 563
07C1 AB00        R     MOV     R3,co_name
07C3 AA00        R     MOV     R2,co_name+01H
07C5 A900        R     MOV     R1,co_name+02H
07C7 90000D            MOV     DPTR,#0DH
07CA 120000      R     LCALL   L?0027
                                           ; SOURCE LINE # 564
07CD 120000      R     LCALL   TM1640Stop
                                           ; SOURCE LINE # 565
07D0 120000      R     LCALL   TM1640Start
                                           ; SOURCE LINE # 566
07D3 7FC1              MOV     R7,#0C1H
C51 COMPILER V9.60.0.0   TM1640                                                            10/03/2022 19:06:34 PAGE 51  

07D5 120000      R     LCALL   _TM1640WriteByte
                                           ; SOURCE LINE # 567
07D8 AB00        R     MOV     R3,co_name
07DA AA00        R     MOV     R2,co_name+01H
07DC A900        R     MOV     R1,co_name+02H
07DE 90000C            MOV     DPTR,#0CH
07E1 120000      R     LCALL   L?0027
                                           ; SOURCE LINE # 568
07E4 120000      R     LCALL   TM1640Stop
                                           ; SOURCE LINE # 569
07E7 120000      R     LCALL   TM1640Start
                                           ; SOURCE LINE # 570
07EA 7FC4              MOV     R7,#0C4H
07EC 120000      R     LCALL   _TM1640WriteByte
                                           ; SOURCE LINE # 571
07EF AB00        R     MOV     R3,co_name
07F1 AA00        R     MOV     R2,co_name+01H
07F3 A900        R     MOV     R1,co_name+02H
07F5 90000B            MOV     DPTR,#0BH
07F8 120000      R     LCALL   L?0027
                                           ; SOURCE LINE # 572
07FB 120000      R     LCALL   TM1640Stop
                                           ; SOURCE LINE # 573
07FE 120000      R     LCALL   TM1640Start
                                           ; SOURCE LINE # 574
0801 7FC3              MOV     R7,#0C3H
0803 120000      R     LCALL   _TM1640WriteByte
                                           ; SOURCE LINE # 575
0806 AB00        R     MOV     R3,co_name
0808 AA00        R     MOV     R2,co_name+01H
080A A900        R     MOV     R1,co_name+02H
080C 90000A            MOV     DPTR,#0AH
080F 120000      R     LCALL   L?0027
                                           ; SOURCE LINE # 576
0812 120000      R     LCALL   TM1640Stop
                                           ; SOURCE LINE # 577
0815 120000      R     LCALL   TM1640Start
                                           ; SOURCE LINE # 578
0818 7FC6              MOV     R7,#0C6H
081A 120000      R     LCALL   _TM1640WriteByte
                                           ; SOURCE LINE # 579
081D AB00        R     MOV     R3,co_name
081F AA00        R     MOV     R2,co_name+01H
0821 A900        R     MOV     R1,co_name+02H
0823 900009            MOV     DPTR,#09H
0826 120000      R     LCALL   L?0027
                                           ; SOURCE LINE # 580
0829 120000      R     LCALL   TM1640Stop
                                           ; SOURCE LINE # 581
082C 120000      R     LCALL   TM1640Start
                                           ; SOURCE LINE # 582
082F 7FC5              MOV     R7,#0C5H
0831 120000      R     LCALL   _TM1640WriteByte
                                           ; SOURCE LINE # 583
0834 AB00        R     MOV     R3,co_name
0836 AA00        R     MOV     R2,co_name+01H
0838 A900        R     MOV     R1,co_name+02H
083A 900008            MOV     DPTR,#08H
083D 120000      R     LCALL   L?0027
                                           ; SOURCE LINE # 584
0840 120000      R     LCALL   TM1640Stop
                                           ; SOURCE LINE # 585
C51 COMPILER V9.60.0.0   TM1640                                                            10/03/2022 19:06:34 PAGE 52  

0843 120000      R     LCALL   TM1640Start
                                           ; SOURCE LINE # 586
0846 7FC8              MOV     R7,#0C8H
0848 120000      R     LCALL   _TM1640WriteByte
                                           ; SOURCE LINE # 587
084B AB00        R     MOV     R3,co_name
084D AA00        R     MOV     R2,co_name+01H
084F A900        R     MOV     R1,co_name+02H
0851 900007            MOV     DPTR,#07H
0854 120000      R     LCALL   L?0027
                                           ; SOURCE LINE # 588
0857 120000      R     LCALL   TM1640Stop
                                           ; SOURCE LINE # 589
085A 120000      R     LCALL   TM1640Start
                                           ; SOURCE LINE # 590
085D 7FC7              MOV     R7,#0C7H
085F 120000      R     LCALL   _TM1640WriteByte
                                           ; SOURCE LINE # 591
0862 AB00        R     MOV     R3,co_name
0864 AA00        R     MOV     R2,co_name+01H
0866 A900        R     MOV     R1,co_name+02H
0868 900006            MOV     DPTR,#06H
086B 120000      R     LCALL   L?0027
                                           ; SOURCE LINE # 592
086E 120000      R     LCALL   TM1640Stop
                                           ; SOURCE LINE # 593
0871 120000      R     LCALL   TM1640Start
                                           ; SOURCE LINE # 594
0874 7FCA              MOV     R7,#0CAH
0876 120000      R     LCALL   _TM1640WriteByte
                                           ; SOURCE LINE # 595
0879 AB00        R     MOV     R3,co_name
087B AA00        R     MOV     R2,co_name+01H
087D A900        R     MOV     R1,co_name+02H
087F 900005            MOV     DPTR,#05H
0882 120000      R     LCALL   L?0027
                                           ; SOURCE LINE # 596
0885 120000      R     LCALL   TM1640Stop
                                           ; SOURCE LINE # 597
0888 120000      R     LCALL   TM1640Start
                                           ; SOURCE LINE # 598
088B 7FC9              MOV     R7,#0C9H
088D 120000      R     LCALL   _TM1640WriteByte
                                           ; SOURCE LINE # 599
0890 AB00        R     MOV     R3,co_name
0892 AA00        R     MOV     R2,co_name+01H
0894 A900        R     MOV     R1,co_name+02H
0896 900004            MOV     DPTR,#04H
0899 120000      R     LCALL   L?0027
                                           ; SOURCE LINE # 600
089C 120000      R     LCALL   TM1640Stop
                                           ; SOURCE LINE # 604
089F 7F64              MOV     R7,#064H
08A1 7E00              MOV     R6,#00H
08A3 120000      E     LCALL   _Delay_Some_Time
                                           ; SOURCE LINE # 606
08A6 120000      R     LCALL   TM1640Start
                                           ; SOURCE LINE # 607
08A9 7FCB              MOV     R7,#0CBH
08AB 120000      R     LCALL   _TM1640WriteByte
                                           ; SOURCE LINE # 608
08AE AB00        R     MOV     R3,co_name
C51 COMPILER V9.60.0.0   TM1640                                                            10/03/2022 19:06:34 PAGE 53  

08B0 AA00        R     MOV     R2,co_name+01H
08B2 A900        R     MOV     R1,co_name+02H
08B4 90000E            MOV     DPTR,#0EH
08B7 120000      R     LCALL   L?0027
                                           ; SOURCE LINE # 609
08BA 120000      R     LCALL   TM1640Stop
                                           ; SOURCE LINE # 610
08BD 120000      R     LCALL   TM1640Start
                                           ; SOURCE LINE # 611
08C0 7FC1              MOV     R7,#0C1H
08C2 120000      R     LCALL   _TM1640WriteByte
                                           ; SOURCE LINE # 612
08C5 AB00        R     MOV     R3,co_name
08C7 AA00        R     MOV     R2,co_name+01H
08C9 A900        R     MOV     R1,co_name+02H
08CB 90000D            MOV     DPTR,#0DH
08CE 120000      R     LCALL   L?0027
                                           ; SOURCE LINE # 613
08D1 120000      R     LCALL   TM1640Stop
                                           ; SOURCE LINE # 614
08D4 120000      R     LCALL   TM1640Start
                                           ; SOURCE LINE # 615
08D7 7FC4              MOV     R7,#0C4H
08D9 120000      R     LCALL   _TM1640WriteByte
                                           ; SOURCE LINE # 616
08DC AB00        R     MOV     R3,co_name
08DE AA00        R     MOV     R2,co_name+01H
08E0 A900        R     MOV     R1,co_name+02H
08E2 90000C            MOV     DPTR,#0CH
08E5 120000      R     LCALL   L?0027
                                           ; SOURCE LINE # 617
08E8 120000      R     LCALL   TM1640Stop
                                           ; SOURCE LINE # 618
08EB 120000      R     LCALL   TM1640Start
                                           ; SOURCE LINE # 619
08EE 7FC3              MOV     R7,#0C3H
08F0 120000      R     LCALL   _TM1640WriteByte
                                           ; SOURCE LINE # 620
08F3 AB00        R     MOV     R3,co_name
08F5 AA00        R     MOV     R2,co_name+01H
08F7 A900        R     MOV     R1,co_name+02H
08F9 90000B            MOV     DPTR,#0BH
08FC 120000      R     LCALL   L?0027
                                           ; SOURCE LINE # 621
08FF 120000      R     LCALL   TM1640Stop
                                           ; SOURCE LINE # 622
0902 120000      R     LCALL   TM1640Start
                                           ; SOURCE LINE # 623
0905 7FC6              MOV     R7,#0C6H
0907 120000      R     LCALL   _TM1640WriteByte
                                           ; SOURCE LINE # 624
090A AB00        R     MOV     R3,co_name
090C AA00        R     MOV     R2,co_name+01H
090E A900        R     MOV     R1,co_name+02H
0910 90000A            MOV     DPTR,#0AH
0913 120000      R     LCALL   L?0027
                                           ; SOURCE LINE # 625
0916 120000      R     LCALL   TM1640Stop
                                           ; SOURCE LINE # 626
0919 120000      R     LCALL   TM1640Start
                                           ; SOURCE LINE # 627
091C 7FC5              MOV     R7,#0C5H
C51 COMPILER V9.60.0.0   TM1640                                                            10/03/2022 19:06:34 PAGE 54  

091E 120000      R     LCALL   _TM1640WriteByte
                                           ; SOURCE LINE # 628
0921 AB00        R     MOV     R3,co_name
0923 AA00        R     MOV     R2,co_name+01H
0925 A900        R     MOV     R1,co_name+02H
0927 900009            MOV     DPTR,#09H
092A 120000      R     LCALL   L?0027
                                           ; SOURCE LINE # 629
092D 120000      R     LCALL   TM1640Stop
                                           ; SOURCE LINE # 630
0930 120000      R     LCALL   TM1640Start
                                           ; SOURCE LINE # 631
0933 7FC8              MOV     R7,#0C8H
0935 120000      R     LCALL   _TM1640WriteByte
                                           ; SOURCE LINE # 632
0938 AB00        R     MOV     R3,co_name
093A AA00        R     MOV     R2,co_name+01H
093C A900        R     MOV     R1,co_name+02H
093E 900008            MOV     DPTR,#08H
0941 120000      R     LCALL   L?0027
                                           ; SOURCE LINE # 633
0944 120000      R     LCALL   TM1640Stop
                                           ; SOURCE LINE # 634
0947 120000      R     LCALL   TM1640Start
                                           ; SOURCE LINE # 635
094A 7FC7              MOV     R7,#0C7H
094C 120000      R     LCALL   _TM1640WriteByte
                                           ; SOURCE LINE # 636
094F AB00        R     MOV     R3,co_name
0951 AA00        R     MOV     R2,co_name+01H
0953 A900        R     MOV     R1,co_name+02H
0955 900007            MOV     DPTR,#07H
0958 120000      R     LCALL   L?0027
                                           ; SOURCE LINE # 637
095B 120000      R     LCALL   TM1640Stop
                                           ; SOURCE LINE # 638
095E 120000      R     LCALL   TM1640Start
                                           ; SOURCE LINE # 639
0961 7FCA              MOV     R7,#0CAH
0963 120000      R     LCALL   _TM1640WriteByte
                                           ; SOURCE LINE # 640
0966 AB00        R     MOV     R3,co_name
0968 AA00        R     MOV     R2,co_name+01H
096A A900        R     MOV     R1,co_name+02H
096C 900006            MOV     DPTR,#06H
096F 120000      R     LCALL   L?0027
                                           ; SOURCE LINE # 641
0972 120000      R     LCALL   TM1640Stop
                                           ; SOURCE LINE # 642
0975 120000      R     LCALL   TM1640Start
                                           ; SOURCE LINE # 643
0978 7FC9              MOV     R7,#0C9H
097A 120000      R     LCALL   _TM1640WriteByte
                                           ; SOURCE LINE # 644
097D AB00        R     MOV     R3,co_name
097F AA00        R     MOV     R2,co_name+01H
0981 A900        R     MOV     R1,co_name+02H
0983 900005            MOV     DPTR,#05H
0986 120000      R     LCALL   L?0027
                                           ; SOURCE LINE # 645
0989 120000      R     LCALL   TM1640Stop
                                           ; SOURCE LINE # 649
C51 COMPILER V9.60.0.0   TM1640                                                            10/03/2022 19:06:34 PAGE 55  

098C 7F64              MOV     R7,#064H
098E 7E00              MOV     R6,#00H
0990 120000      E     LCALL   _Delay_Some_Time
                                           ; SOURCE LINE # 651
0993 120000      R     LCALL   TM1640Start
                                           ; SOURCE LINE # 652
0996 7FCB              MOV     R7,#0CBH
0998 120000      R     LCALL   _TM1640WriteByte
                                           ; SOURCE LINE # 653
099B AB00        R     MOV     R3,co_name
099D AA00        R     MOV     R2,co_name+01H
099F A900        R     MOV     R1,co_name+02H
09A1 90000F            MOV     DPTR,#0FH
09A4 120000      R     LCALL   L?0027
                                           ; SOURCE LINE # 654
09A7 120000      R     LCALL   TM1640Stop
                                           ; SOURCE LINE # 655
09AA 120000      R     LCALL   TM1640Start
                                           ; SOURCE LINE # 656
09AD 7FC1              MOV     R7,#0C1H
09AF 120000      R     LCALL   _TM1640WriteByte
                                           ; SOURCE LINE # 657
09B2 AB00        R     MOV     R3,co_name
09B4 AA00        R     MOV     R2,co_name+01H
09B6 A900        R     MOV     R1,co_name+02H
09B8 90000E            MOV     DPTR,#0EH
09BB 120000      R     LCALL   L?0027
                                           ; SOURCE LINE # 658
09BE 120000      R     LCALL   TM1640Stop
                                           ; SOURCE LINE # 659
09C1 120000      R     LCALL   TM1640Start
                                           ; SOURCE LINE # 660
09C4 7FC4              MOV     R7,#0C4H
09C6 120000      R     LCALL   _TM1640WriteByte
                                           ; SOURCE LINE # 661
09C9 AB00        R     MOV     R3,co_name
09CB AA00        R     MOV     R2,co_name+01H
09CD A900        R     MOV     R1,co_name+02H
09CF 90000D            MOV     DPTR,#0DH
09D2 120000      R     LCALL   L?0027
                                           ; SOURCE LINE # 662
09D5 120000      R     LCALL   TM1640Stop
                                           ; SOURCE LINE # 663
09D8 120000      R     LCALL   TM1640Start
                                           ; SOURCE LINE # 664
09DB 7FC3              MOV     R7,#0C3H
09DD 120000      R     LCALL   _TM1640WriteByte
                                           ; SOURCE LINE # 665
09E0 AB00        R     MOV     R3,co_name
09E2 AA00        R     MOV     R2,co_name+01H
09E4 A900        R     MOV     R1,co_name+02H
09E6 90000C            MOV     DPTR,#0CH
09E9 120000      R     LCALL   L?0027
                                           ; SOURCE LINE # 666
09EC 120000      R     LCALL   TM1640Stop
                                           ; SOURCE LINE # 667
09EF 120000      R     LCALL   TM1640Start
                                           ; SOURCE LINE # 668
09F2 7FC6              MOV     R7,#0C6H
09F4 120000      R     LCALL   _TM1640WriteByte
                                           ; SOURCE LINE # 669
09F7 AB00        R     MOV     R3,co_name
C51 COMPILER V9.60.0.0   TM1640                                                            10/03/2022 19:06:34 PAGE 56  

09F9 AA00        R     MOV     R2,co_name+01H
09FB A900        R     MOV     R1,co_name+02H
09FD 90000B            MOV     DPTR,#0BH
0A00 120000      R     LCALL   L?0027
                                           ; SOURCE LINE # 670
0A03 120000      R     LCALL   TM1640Stop
                                           ; SOURCE LINE # 671
0A06 120000      R     LCALL   TM1640Start
                                           ; SOURCE LINE # 672
0A09 7FC5              MOV     R7,#0C5H
0A0B 120000      R     LCALL   _TM1640WriteByte
                                           ; SOURCE LINE # 673
0A0E AB00        R     MOV     R3,co_name
0A10 AA00        R     MOV     R2,co_name+01H
0A12 A900        R     MOV     R1,co_name+02H
0A14 90000A            MOV     DPTR,#0AH
0A17 120000      R     LCALL   L?0027
                                           ; SOURCE LINE # 674
0A1A 120000      R     LCALL   TM1640Stop
                                           ; SOURCE LINE # 675
0A1D 120000      R     LCALL   TM1640Start
                                           ; SOURCE LINE # 676
0A20 7FC8              MOV     R7,#0C8H
0A22 120000      R     LCALL   _TM1640WriteByte
                                           ; SOURCE LINE # 677
0A25 AB00        R     MOV     R3,co_name
0A27 AA00        R     MOV     R2,co_name+01H
0A29 A900        R     MOV     R1,co_name+02H
0A2B 900009            MOV     DPTR,#09H
0A2E 120000      R     LCALL   L?0027
                                           ; SOURCE LINE # 678
0A31 120000      R     LCALL   TM1640Stop
                                           ; SOURCE LINE # 679
0A34 120000      R     LCALL   TM1640Start
                                           ; SOURCE LINE # 680
0A37 7FC7              MOV     R7,#0C7H
0A39 120000      R     LCALL   _TM1640WriteByte
                                           ; SOURCE LINE # 681
0A3C AB00        R     MOV     R3,co_name
0A3E AA00        R     MOV     R2,co_name+01H
0A40 A900        R     MOV     R1,co_name+02H
0A42 900008            MOV     DPTR,#08H
0A45 120000      R     LCALL   L?0027
                                           ; SOURCE LINE # 682
0A48 120000      R     LCALL   TM1640Stop
                                           ; SOURCE LINE # 683
0A4B 120000      R     LCALL   TM1640Start
                                           ; SOURCE LINE # 684
0A4E 7FCA              MOV     R7,#0CAH
0A50 120000      R     LCALL   _TM1640WriteByte
                                           ; SOURCE LINE # 685
0A53 AB00        R     MOV     R3,co_name
0A55 AA00        R     MOV     R2,co_name+01H
0A57 A900        R     MOV     R1,co_name+02H
0A59 900007            MOV     DPTR,#07H
0A5C 120000      R     LCALL   L?0027
                                           ; SOURCE LINE # 686
0A5F 120000      R     LCALL   TM1640Stop
                                           ; SOURCE LINE # 687
0A62 120000      R     LCALL   TM1640Start
                                           ; SOURCE LINE # 688
0A65 7FC9              MOV     R7,#0C9H
C51 COMPILER V9.60.0.0   TM1640                                                            10/03/2022 19:06:34 PAGE 57  

0A67 120000      R     LCALL   _TM1640WriteByte
                                           ; SOURCE LINE # 689
0A6A AB00        R     MOV     R3,co_name
0A6C AA00        R     MOV     R2,co_name+01H
0A6E A900        R     MOV     R1,co_name+02H
0A70 900006            MOV     DPTR,#06H
0A73 120000      R     LCALL   L?0027
                                           ; SOURCE LINE # 690
0A76 120000      R     LCALL   TM1640Stop
                                           ; SOURCE LINE # 694
0A79 7F64              MOV     R7,#064H
0A7B 7E00              MOV     R6,#00H
0A7D 120000      E     LCALL   _Delay_Some_Time
                                           ; SOURCE LINE # 696
0A80 120000      R     LCALL   TM1640Start
                                           ; SOURCE LINE # 697
0A83 7FCB              MOV     R7,#0CBH
0A85 120000      R     LCALL   _TM1640WriteByte
                                           ; SOURCE LINE # 698
0A88 AB00        R     MOV     R3,co_name
0A8A AA00        R     MOV     R2,co_name+01H
0A8C A900        R     MOV     R1,co_name+02H
0A8E 900010            MOV     DPTR,#010H
0A91 120000      R     LCALL   L?0027
                                           ; SOURCE LINE # 699
0A94 120000      R     LCALL   TM1640Stop
                                           ; SOURCE LINE # 700
0A97 120000      R     LCALL   TM1640Start
                                           ; SOURCE LINE # 701
0A9A 7FC1              MOV     R7,#0C1H
0A9C 120000      R     LCALL   _TM1640WriteByte
                                           ; SOURCE LINE # 702
0A9F AB00        R     MOV     R3,co_name
0AA1 AA00        R     MOV     R2,co_name+01H
0AA3 A900        R     MOV     R1,co_name+02H
0AA5 90000F            MOV     DPTR,#0FH
0AA8 120000      R     LCALL   L?0027
                                           ; SOURCE LINE # 703
0AAB 120000      R     LCALL   TM1640Stop
                                           ; SOURCE LINE # 704
0AAE 120000      R     LCALL   TM1640Start
                                           ; SOURCE LINE # 705
0AB1 7FC4              MOV     R7,#0C4H
0AB3 120000      R     LCALL   _TM1640WriteByte
                                           ; SOURCE LINE # 706
0AB6 AB00        R     MOV     R3,co_name
0AB8 AA00        R     MOV     R2,co_name+01H
0ABA A900        R     MOV     R1,co_name+02H
0ABC 90000E            MOV     DPTR,#0EH
0ABF 120000      R     LCALL   L?0027
                                           ; SOURCE LINE # 707
0AC2 120000      R     LCALL   TM1640Stop
                                           ; SOURCE LINE # 708
0AC5 120000      R     LCALL   TM1640Start
                                           ; SOURCE LINE # 709
0AC8 7FC3              MOV     R7,#0C3H
0ACA 120000      R     LCALL   _TM1640WriteByte
                                           ; SOURCE LINE # 710
0ACD AB00        R     MOV     R3,co_name
0ACF AA00        R     MOV     R2,co_name+01H
0AD1 A900        R     MOV     R1,co_name+02H
0AD3 90000D            MOV     DPTR,#0DH
C51 COMPILER V9.60.0.0   TM1640                                                            10/03/2022 19:06:34 PAGE 58  

0AD6 120000      R     LCALL   L?0027
                                           ; SOURCE LINE # 711
0AD9 120000      R     LCALL   TM1640Stop
                                           ; SOURCE LINE # 712
0ADC 120000      R     LCALL   TM1640Start
                                           ; SOURCE LINE # 713
0ADF 7FC6              MOV     R7,#0C6H
0AE1 120000      R     LCALL   _TM1640WriteByte
                                           ; SOURCE LINE # 714
0AE4 AB00        R     MOV     R3,co_name
0AE6 AA00        R     MOV     R2,co_name+01H
0AE8 A900        R     MOV     R1,co_name+02H
0AEA 90000C            MOV     DPTR,#0CH
0AED 120000      R     LCALL   L?0027
                                           ; SOURCE LINE # 715
0AF0 120000      R     LCALL   TM1640Stop
                                           ; SOURCE LINE # 716
0AF3 120000      R     LCALL   TM1640Start
                                           ; SOURCE LINE # 717
0AF6 7FC5              MOV     R7,#0C5H
0AF8 120000      R     LCALL   _TM1640WriteByte
                                           ; SOURCE LINE # 718
0AFB AB00        R     MOV     R3,co_name
0AFD AA00        R     MOV     R2,co_name+01H
0AFF A900        R     MOV     R1,co_name+02H
0B01 90000B            MOV     DPTR,#0BH
0B04 120000      R     LCALL   L?0027
                                           ; SOURCE LINE # 719
0B07 120000      R     LCALL   TM1640Stop
                                           ; SOURCE LINE # 720
0B0A 120000      R     LCALL   TM1640Start
                                           ; SOURCE LINE # 721
0B0D 7FC8              MOV     R7,#0C8H
0B0F 120000      R     LCALL   _TM1640WriteByte
                                           ; SOURCE LINE # 722
0B12 AB00        R     MOV     R3,co_name
0B14 AA00        R     MOV     R2,co_name+01H
0B16 A900        R     MOV     R1,co_name+02H
0B18 90000A            MOV     DPTR,#0AH
0B1B 120000      R     LCALL   L?0027
                                           ; SOURCE LINE # 723
0B1E 120000      R     LCALL   TM1640Stop
                                           ; SOURCE LINE # 724
0B21 120000      R     LCALL   TM1640Start
                                           ; SOURCE LINE # 725
0B24 7FC7              MOV     R7,#0C7H
0B26 120000      R     LCALL   _TM1640WriteByte
                                           ; SOURCE LINE # 726
0B29 AB00        R     MOV     R3,co_name
0B2B AA00        R     MOV     R2,co_name+01H
0B2D A900        R     MOV     R1,co_name+02H
0B2F 900009            MOV     DPTR,#09H
0B32 120000      R     LCALL   L?0027
                                           ; SOURCE LINE # 727
0B35 120000      R     LCALL   TM1640Stop
                                           ; SOURCE LINE # 728
0B38 120000      R     LCALL   TM1640Start
                                           ; SOURCE LINE # 729
0B3B 7FCA              MOV     R7,#0CAH
0B3D 120000      R     LCALL   _TM1640WriteByte
                                           ; SOURCE LINE # 730
0B40 AB00        R     MOV     R3,co_name
C51 COMPILER V9.60.0.0   TM1640                                                            10/03/2022 19:06:34 PAGE 59  

0B42 AA00        R     MOV     R2,co_name+01H
0B44 A900        R     MOV     R1,co_name+02H
0B46 900008            MOV     DPTR,#08H
0B49 120000      R     LCALL   L?0027
                                           ; SOURCE LINE # 731
0B4C 120000      R     LCALL   TM1640Stop
                                           ; SOURCE LINE # 732
0B4F 120000      R     LCALL   TM1640Start
                                           ; SOURCE LINE # 733
0B52 7FC9              MOV     R7,#0C9H
0B54 120000      R     LCALL   _TM1640WriteByte
                                           ; SOURCE LINE # 734
0B57 AB00        R     MOV     R3,co_name
0B59 AA00        R     MOV     R2,co_name+01H
0B5B A900        R     MOV     R1,co_name+02H
0B5D 900007            MOV     DPTR,#07H
0B60 120000      R     LCALL   L?0027
                                           ; SOURCE LINE # 735
0B63 120000      R     LCALL   TM1640Stop
                                           ; SOURCE LINE # 739
0B66 7F64              MOV     R7,#064H
0B68 7E00              MOV     R6,#00H
0B6A 120000      E     LCALL   _Delay_Some_Time
                                           ; SOURCE LINE # 741
0B6D 120000      R     LCALL   TM1640Start
                                           ; SOURCE LINE # 742
0B70 7FCB              MOV     R7,#0CBH
0B72 120000      R     LCALL   _TM1640WriteByte
                                           ; SOURCE LINE # 743
0B75 AB00        R     MOV     R3,co_name
0B77 AA00        R     MOV     R2,co_name+01H
0B79 A900        R     MOV     R1,co_name+02H
0B7B 900011            MOV     DPTR,#011H
0B7E 120000      R     LCALL   L?0027
                                           ; SOURCE LINE # 744
0B81 120000      R     LCALL   TM1640Stop
                                           ; SOURCE LINE # 745
0B84 120000      R     LCALL   TM1640Start
                                           ; SOURCE LINE # 746
0B87 7FC1              MOV     R7,#0C1H
0B89 120000      R     LCALL   _TM1640WriteByte
                                           ; SOURCE LINE # 747
0B8C AB00        R     MOV     R3,co_name
0B8E AA00        R     MOV     R2,co_name+01H
0B90 A900        R     MOV     R1,co_name+02H
0B92 900010            MOV     DPTR,#010H
0B95 120000      R     LCALL   L?0027
                                           ; SOURCE LINE # 748
0B98 120000      R     LCALL   TM1640Stop
                                           ; SOURCE LINE # 749
0B9B 120000      R     LCALL   TM1640Start
                                           ; SOURCE LINE # 750
0B9E 7FC4              MOV     R7,#0C4H
0BA0 120000      R     LCALL   _TM1640WriteByte
                                           ; SOURCE LINE # 751
0BA3 AB00        R     MOV     R3,co_name
0BA5 AA00        R     MOV     R2,co_name+01H
0BA7 A900        R     MOV     R1,co_name+02H
0BA9 90000F            MOV     DPTR,#0FH
0BAC 120000      R     LCALL   L?0027
                                           ; SOURCE LINE # 752
0BAF 120000      R     LCALL   TM1640Stop
C51 COMPILER V9.60.0.0   TM1640                                                            10/03/2022 19:06:34 PAGE 60  

                                           ; SOURCE LINE # 753
0BB2 120000      R     LCALL   TM1640Start
                                           ; SOURCE LINE # 754
0BB5 7FC3              MOV     R7,#0C3H
0BB7 120000      R     LCALL   _TM1640WriteByte
                                           ; SOURCE LINE # 755
0BBA AB00        R     MOV     R3,co_name
0BBC AA00        R     MOV     R2,co_name+01H
0BBE A900        R     MOV     R1,co_name+02H
0BC0 90000E            MOV     DPTR,#0EH
0BC3 120000      R     LCALL   L?0027
                                           ; SOURCE LINE # 756
0BC6 120000      R     LCALL   TM1640Stop
                                           ; SOURCE LINE # 757
0BC9 120000      R     LCALL   TM1640Start
                                           ; SOURCE LINE # 758
0BCC 7FC6              MOV     R7,#0C6H
0BCE 120000      R     LCALL   _TM1640WriteByte
                                           ; SOURCE LINE # 759
0BD1 AB00        R     MOV     R3,co_name
0BD3 AA00        R     MOV     R2,co_name+01H
0BD5 A900        R     MOV     R1,co_name+02H
0BD7 90000D            MOV     DPTR,#0DH
0BDA 120000      R     LCALL   L?0027
                                           ; SOURCE LINE # 760
0BDD 120000      R     LCALL   TM1640Stop
                                           ; SOURCE LINE # 761
0BE0 120000      R     LCALL   TM1640Start
                                           ; SOURCE LINE # 762
0BE3 7FC5              MOV     R7,#0C5H
0BE5 120000      R     LCALL   _TM1640WriteByte
                                           ; SOURCE LINE # 763
0BE8 AB00        R     MOV     R3,co_name
0BEA AA00        R     MOV     R2,co_name+01H
0BEC A900        R     MOV     R1,co_name+02H
0BEE 90000C            MOV     DPTR,#0CH
0BF1 120000      R     LCALL   L?0027
                                           ; SOURCE LINE # 764
0BF4 120000      R     LCALL   TM1640Stop
                                           ; SOURCE LINE # 765
0BF7 120000      R     LCALL   TM1640Start
                                           ; SOURCE LINE # 766
0BFA 7FC8              MOV     R7,#0C8H
0BFC 120000      R     LCALL   _TM1640WriteByte
                                           ; SOURCE LINE # 767
0BFF AB00        R     MOV     R3,co_name
0C01 AA00        R     MOV     R2,co_name+01H
0C03 A900        R     MOV     R1,co_name+02H
0C05 90000B            MOV     DPTR,#0BH
0C08 120000      R     LCALL   L?0027
                                           ; SOURCE LINE # 768
0C0B 120000      R     LCALL   TM1640Stop
                                           ; SOURCE LINE # 769
0C0E 120000      R     LCALL   TM1640Start
                                           ; SOURCE LINE # 770
0C11 7FC7              MOV     R7,#0C7H
0C13 120000      R     LCALL   _TM1640WriteByte
                                           ; SOURCE LINE # 771
0C16 AB00        R     MOV     R3,co_name
0C18 AA00        R     MOV     R2,co_name+01H
0C1A A900        R     MOV     R1,co_name+02H
0C1C 90000A            MOV     DPTR,#0AH
C51 COMPILER V9.60.0.0   TM1640                                                            10/03/2022 19:06:34 PAGE 61  

0C1F 120000      R     LCALL   L?0027
                                           ; SOURCE LINE # 772
0C22 120000      R     LCALL   TM1640Stop
                                           ; SOURCE LINE # 773
0C25 120000      R     LCALL   TM1640Start
                                           ; SOURCE LINE # 774
0C28 7FCA              MOV     R7,#0CAH
0C2A 120000      R     LCALL   _TM1640WriteByte
                                           ; SOURCE LINE # 775
0C2D AB00        R     MOV     R3,co_name
0C2F AA00        R     MOV     R2,co_name+01H
0C31 A900        R     MOV     R1,co_name+02H
0C33 900009            MOV     DPTR,#09H
0C36 120000      R     LCALL   L?0027
                                           ; SOURCE LINE # 776
0C39 120000      R     LCALL   TM1640Stop
                                           ; SOURCE LINE # 777
0C3C 120000      R     LCALL   TM1640Start
                                           ; SOURCE LINE # 778
0C3F 7FC9              MOV     R7,#0C9H
0C41 120000      R     LCALL   _TM1640WriteByte
                                           ; SOURCE LINE # 779
0C44 AB00        R     MOV     R3,co_name
0C46 AA00        R     MOV     R2,co_name+01H
0C48 A900        R     MOV     R1,co_name+02H
0C4A 900008            MOV     DPTR,#08H
0C4D 120000      R     LCALL   L?0027
                                           ; SOURCE LINE # 780
0C50 120000      R     LCALL   TM1640Stop
                                           ; SOURCE LINE # 784
0C53 7F64              MOV     R7,#064H
0C55 7E00              MOV     R6,#00H
0C57 120000      E     LCALL   _Delay_Some_Time
                                           ; SOURCE LINE # 786
0C5A 120000      R     LCALL   TM1640Start
                                           ; SOURCE LINE # 787
0C5D 7FCB              MOV     R7,#0CBH
0C5F 120000      R     LCALL   _TM1640WriteByte
                                           ; SOURCE LINE # 788
0C62 AB00        R     MOV     R3,co_name
0C64 AA00        R     MOV     R2,co_name+01H
0C66 A900        R     MOV     R1,co_name+02H
0C68 900012            MOV     DPTR,#012H
0C6B 120000      R     LCALL   L?0027
                                           ; SOURCE LINE # 789
0C6E 120000      R     LCALL   TM1640Stop
                                           ; SOURCE LINE # 790
0C71 120000      R     LCALL   TM1640Start
                                           ; SOURCE LINE # 791
0C74 7FC1              MOV     R7,#0C1H
0C76 120000      R     LCALL   _TM1640WriteByte
                                           ; SOURCE LINE # 792
0C79 AB00        R     MOV     R3,co_name
0C7B AA00        R     MOV     R2,co_name+01H
0C7D A900        R     MOV     R1,co_name+02H
0C7F 900011            MOV     DPTR,#011H
0C82 120000      R     LCALL   L?0027
                                           ; SOURCE LINE # 793
0C85 120000      R     LCALL   TM1640Stop
                                           ; SOURCE LINE # 794
0C88 120000      R     LCALL   TM1640Start
                                           ; SOURCE LINE # 795
C51 COMPILER V9.60.0.0   TM1640                                                            10/03/2022 19:06:34 PAGE 62  

0C8B 7FC4              MOV     R7,#0C4H
0C8D 120000      R     LCALL   _TM1640WriteByte
                                           ; SOURCE LINE # 796
0C90 AB00        R     MOV     R3,co_name
0C92 AA00        R     MOV     R2,co_name+01H
0C94 A900        R     MOV     R1,co_name+02H
0C96 900010            MOV     DPTR,#010H
0C99 120000      R     LCALL   L?0027
                                           ; SOURCE LINE # 797
0C9C 120000      R     LCALL   TM1640Stop
                                           ; SOURCE LINE # 798
0C9F 120000      R     LCALL   TM1640Start
                                           ; SOURCE LINE # 799
0CA2 7FC3              MOV     R7,#0C3H
0CA4 120000      R     LCALL   _TM1640WriteByte
                                           ; SOURCE LINE # 800
0CA7 AB00        R     MOV     R3,co_name
0CA9 AA00        R     MOV     R2,co_name+01H
0CAB A900        R     MOV     R1,co_name+02H
0CAD 90000F            MOV     DPTR,#0FH
0CB0 120000      R     LCALL   L?0027
                                           ; SOURCE LINE # 801
0CB3 120000      R     LCALL   TM1640Stop
                                           ; SOURCE LINE # 802
0CB6 120000      R     LCALL   TM1640Start
                                           ; SOURCE LINE # 803
0CB9 7FC6              MOV     R7,#0C6H
0CBB 120000      R     LCALL   _TM1640WriteByte
                                           ; SOURCE LINE # 804
0CBE AB00        R     MOV     R3,co_name
0CC0 AA00        R     MOV     R2,co_name+01H
0CC2 A900        R     MOV     R1,co_name+02H
0CC4 90000E            MOV     DPTR,#0EH
0CC7 120000      R     LCALL   L?0027
                                           ; SOURCE LINE # 805
0CCA 120000      R     LCALL   TM1640Stop
                                           ; SOURCE LINE # 806
0CCD 120000      R     LCALL   TM1640Start
                                           ; SOURCE LINE # 807
0CD0 7FC5              MOV     R7,#0C5H
0CD2 120000      R     LCALL   _TM1640WriteByte
                                           ; SOURCE LINE # 808
0CD5 AB00        R     MOV     R3,co_name
0CD7 AA00        R     MOV     R2,co_name+01H
0CD9 A900        R     MOV     R1,co_name+02H
0CDB 90000D            MOV     DPTR,#0DH
0CDE 120000      R     LCALL   L?0027
                                           ; SOURCE LINE # 809
0CE1 120000      R     LCALL   TM1640Stop
                                           ; SOURCE LINE # 810
0CE4 120000      R     LCALL   TM1640Start
                                           ; SOURCE LINE # 811
0CE7 7FC8              MOV     R7,#0C8H
0CE9 120000      R     LCALL   _TM1640WriteByte
                                           ; SOURCE LINE # 812
0CEC AB00        R     MOV     R3,co_name
0CEE AA00        R     MOV     R2,co_name+01H
0CF0 A900        R     MOV     R1,co_name+02H
0CF2 90000C            MOV     DPTR,#0CH
0CF5 120000      R     LCALL   L?0027
                                           ; SOURCE LINE # 813
0CF8 120000      R     LCALL   TM1640Stop
C51 COMPILER V9.60.0.0   TM1640                                                            10/03/2022 19:06:34 PAGE 63  

                                           ; SOURCE LINE # 814
0CFB 120000      R     LCALL   TM1640Start
                                           ; SOURCE LINE # 815
0CFE 7FC7              MOV     R7,#0C7H
0D00 120000      R     LCALL   _TM1640WriteByte
                                           ; SOURCE LINE # 816
0D03 AB00        R     MOV     R3,co_name
0D05 AA00        R     MOV     R2,co_name+01H
0D07 A900        R     MOV     R1,co_name+02H
0D09 90000B            MOV     DPTR,#0BH
0D0C 120000      R     LCALL   L?0027
                                           ; SOURCE LINE # 817
0D0F 120000      R     LCALL   TM1640Stop
                                           ; SOURCE LINE # 818
0D12 120000      R     LCALL   TM1640Start
                                           ; SOURCE LINE # 819
0D15 7FCA              MOV     R7,#0CAH
0D17 120000      R     LCALL   _TM1640WriteByte
                                           ; SOURCE LINE # 820
0D1A AB00        R     MOV     R3,co_name
0D1C AA00        R     MOV     R2,co_name+01H
0D1E A900        R     MOV     R1,co_name+02H
0D20 90000A            MOV     DPTR,#0AH
0D23 120000      R     LCALL   L?0027
                                           ; SOURCE LINE # 821
0D26 120000      R     LCALL   TM1640Stop
                                           ; SOURCE LINE # 822
0D29 120000      R     LCALL   TM1640Start
                                           ; SOURCE LINE # 823
0D2C 7FC9              MOV     R7,#0C9H
0D2E 120000      R     LCALL   _TM1640WriteByte
                                           ; SOURCE LINE # 824
0D31 AB00        R     MOV     R3,co_name
0D33 AA00        R     MOV     R2,co_name+01H
0D35 A900        R     MOV     R1,co_name+02H
0D37 900009            MOV     DPTR,#09H
0D3A 120000      R     LCALL   L?0027
                                           ; SOURCE LINE # 825
0D3D 120000      R     LCALL   TM1640Stop
                                           ; SOURCE LINE # 829
0D40 7F64              MOV     R7,#064H
0D42 7E00              MOV     R6,#00H
0D44 120000      E     LCALL   _Delay_Some_Time
                                           ; SOURCE LINE # 831
0D47 120000      R     LCALL   TM1640Start
                                           ; SOURCE LINE # 832
0D4A 7FCB              MOV     R7,#0CBH
0D4C 120000      R     LCALL   _TM1640WriteByte
                                           ; SOURCE LINE # 833
0D4F AB00        R     MOV     R3,co_name
0D51 AA00        R     MOV     R2,co_name+01H
0D53 A900        R     MOV     R1,co_name+02H
0D55 900013            MOV     DPTR,#013H
0D58 120000      R     LCALL   L?0027
                                           ; SOURCE LINE # 834
0D5B 120000      R     LCALL   TM1640Stop
                                           ; SOURCE LINE # 835
0D5E 120000      R     LCALL   TM1640Start
                                           ; SOURCE LINE # 836
0D61 7FC1              MOV     R7,#0C1H
0D63 120000      R     LCALL   _TM1640WriteByte
                                           ; SOURCE LINE # 837
C51 COMPILER V9.60.0.0   TM1640                                                            10/03/2022 19:06:34 PAGE 64  

0D66 AB00        R     MOV     R3,co_name
0D68 AA00        R     MOV     R2,co_name+01H
0D6A A900        R     MOV     R1,co_name+02H
0D6C 900012            MOV     DPTR,#012H
0D6F 120000      R     LCALL   L?0027
                                           ; SOURCE LINE # 838
0D72 120000      R     LCALL   TM1640Stop
                                           ; SOURCE LINE # 839
0D75 120000      R     LCALL   TM1640Start
                                           ; SOURCE LINE # 840
0D78 7FC4              MOV     R7,#0C4H
0D7A 120000      R     LCALL   _TM1640WriteByte
                                           ; SOURCE LINE # 841
0D7D AB00        R     MOV     R3,co_name
0D7F AA00        R     MOV     R2,co_name+01H
0D81 A900        R     MOV     R1,co_name+02H
0D83 900011            MOV     DPTR,#011H
0D86 120000      R     LCALL   L?0027
                                           ; SOURCE LINE # 842
0D89 120000      R     LCALL   TM1640Stop
                                           ; SOURCE LINE # 843
0D8C 120000      R     LCALL   TM1640Start
                                           ; SOURCE LINE # 844
0D8F 7FC3              MOV     R7,#0C3H
0D91 120000      R     LCALL   _TM1640WriteByte
                                           ; SOURCE LINE # 845
0D94 AB00        R     MOV     R3,co_name
0D96 AA00        R     MOV     R2,co_name+01H
0D98 A900        R     MOV     R1,co_name+02H
0D9A 900010            MOV     DPTR,#010H
0D9D 120000      R     LCALL   L?0027
                                           ; SOURCE LINE # 846
0DA0 120000      R     LCALL   TM1640Stop
                                           ; SOURCE LINE # 847
0DA3 120000      R     LCALL   TM1640Start
                                           ; SOURCE LINE # 848
0DA6 7FC6              MOV     R7,#0C6H
0DA8 120000      R     LCALL   _TM1640WriteByte
                                           ; SOURCE LINE # 849
0DAB AB00        R     MOV     R3,co_name
0DAD AA00        R     MOV     R2,co_name+01H
0DAF A900        R     MOV     R1,co_name+02H
0DB1 90000F            MOV     DPTR,#0FH
0DB4 120000      R     LCALL   L?0027
                                           ; SOURCE LINE # 850
0DB7 120000      R     LCALL   TM1640Stop
                                           ; SOURCE LINE # 851
0DBA 120000      R     LCALL   TM1640Start
                                           ; SOURCE LINE # 852
0DBD 7FC5              MOV     R7,#0C5H
0DBF 120000      R     LCALL   _TM1640WriteByte
                                           ; SOURCE LINE # 853
0DC2 AB00        R     MOV     R3,co_name
0DC4 AA00        R     MOV     R2,co_name+01H
0DC6 A900        R     MOV     R1,co_name+02H
0DC8 90000E            MOV     DPTR,#0EH
0DCB 120000      R     LCALL   L?0027
                                           ; SOURCE LINE # 854
0DCE 120000      R     LCALL   TM1640Stop
                                           ; SOURCE LINE # 855
0DD1 120000      R     LCALL   TM1640Start
                                           ; SOURCE LINE # 856
C51 COMPILER V9.60.0.0   TM1640                                                            10/03/2022 19:06:34 PAGE 65  

0DD4 7FC8              MOV     R7,#0C8H
0DD6 120000      R     LCALL   _TM1640WriteByte
                                           ; SOURCE LINE # 857
0DD9 AB00        R     MOV     R3,co_name
0DDB AA00        R     MOV     R2,co_name+01H
0DDD A900        R     MOV     R1,co_name+02H
0DDF 90000D            MOV     DPTR,#0DH
0DE2 120000      R     LCALL   L?0027
                                           ; SOURCE LINE # 858
0DE5 120000      R     LCALL   TM1640Stop
                                           ; SOURCE LINE # 859
0DE8 120000      R     LCALL   TM1640Start
                                           ; SOURCE LINE # 860
0DEB 7FC7              MOV     R7,#0C7H
0DED 120000      R     LCALL   _TM1640WriteByte
                                           ; SOURCE LINE # 861
0DF0 AB00        R     MOV     R3,co_name
0DF2 AA00        R     MOV     R2,co_name+01H
0DF4 A900        R     MOV     R1,co_name+02H
0DF6 90000C            MOV     DPTR,#0CH
0DF9 120000      R     LCALL   L?0027
                                           ; SOURCE LINE # 862
0DFC 120000      R     LCALL   TM1640Stop
                                           ; SOURCE LINE # 863
0DFF 120000      R     LCALL   TM1640Start
                                           ; SOURCE LINE # 864
0E02 7FCA              MOV     R7,#0CAH
0E04 120000      R     LCALL   _TM1640WriteByte
                                           ; SOURCE LINE # 865
0E07 AB00        R     MOV     R3,co_name
0E09 AA00        R     MOV     R2,co_name+01H
0E0B A900        R     MOV     R1,co_name+02H
0E0D 90000B            MOV     DPTR,#0BH
0E10 120000      R     LCALL   L?0027
                                           ; SOURCE LINE # 866
0E13 120000      R     LCALL   TM1640Stop
                                           ; SOURCE LINE # 867
0E16 120000      R     LCALL   TM1640Start
                                           ; SOURCE LINE # 868
0E19 7FC9              MOV     R7,#0C9H
0E1B 120000      R     LCALL   _TM1640WriteByte
                                           ; SOURCE LINE # 869
0E1E AB00        R     MOV     R3,co_name
0E20 AA00        R     MOV     R2,co_name+01H
0E22 A900        R     MOV     R1,co_name+02H
0E24 90000A            MOV     DPTR,#0AH
0E27 120000      R     LCALL   L?0027
                                           ; SOURCE LINE # 870
0E2A 120000      R     LCALL   TM1640Stop
                                           ; SOURCE LINE # 871
0E2D 120000      R     LCALL   TM1640Start
                                           ; SOURCE LINE # 872
0E30 7F8B              MOV     R7,#08BH
0E32 120000      R     LCALL   _TM1640WriteByte
                                           ; SOURCE LINE # 873
0E35 020000      R     LJMP    TM1640Stop
             ; FUNCTION _TM1640_UM_display (END)

             ; FUNCTION _TM1640_digichk (BEGIN)
                                           ; SOURCE LINE # 877
0000 8B00        R     MOV     dichk_temp,R3
0002 8A00        R     MOV     dichk_temp+01H,R2
C51 COMPILER V9.60.0.0   TM1640                                                            10/03/2022 19:06:34 PAGE 66  

0004 8900        R     MOV     dichk_temp+02H,R1
                                           ; SOURCE LINE # 878
                                           ; SOURCE LINE # 879
0006 120000      R     LCALL   TM1640Start
                                           ; SOURCE LINE # 880
0009 7F44              MOV     R7,#044H
000B 120000      R     LCALL   _TM1640WriteByte
                                           ; SOURCE LINE # 881
000E 120000      R     LCALL   TM1640Stop
                                           ; SOURCE LINE # 883
0011 120000      R     LCALL   TM1640Start
                                           ; SOURCE LINE # 884
0014 7FC2              MOV     R7,#0C2H
0016 120000      R     LCALL   _TM1640WriteByte
                                           ; SOURCE LINE # 885
0019 AB00        R     MOV     R3,dichk_temp
001B AA00        R     MOV     R2,dichk_temp+01H
001D A900        R     MOV     R1,dichk_temp+02H
001F 120000      E     LCALL   ?C?CLDPTR
0022 FF                MOV     R7,A
0023 120000      R     LCALL   _TM1640WriteByte
                                           ; SOURCE LINE # 886
0026 120000      R     LCALL   TM1640Stop
                                           ; SOURCE LINE # 889
0029 120000      R     LCALL   TM1640Start
                                           ; SOURCE LINE # 890
002C 7FC0              MOV     R7,#0C0H
002E 120000      R     LCALL   _TM1640WriteByte
                                           ; SOURCE LINE # 891
0031 AB00        R     MOV     R3,dichk_temp
0033 AA00        R     MOV     R2,dichk_temp+01H
0035 A900        R     MOV     R1,dichk_temp+02H
0037 120000      E     LCALL   ?C?CLDPTR
003A FF                MOV     R7,A
003B 120000      R     LCALL   _TM1640WriteByte
                                           ; SOURCE LINE # 892
003E 120000      R     LCALL   TM1640Stop
                                           ; SOURCE LINE # 894
0041 120000      R     LCALL   TM1640Start
                                           ; SOURCE LINE # 895
0044 7FCC              MOV     R7,#0CCH
0046 120000      R     LCALL   _TM1640WriteByte
                                           ; SOURCE LINE # 896
0049 AB00        R     MOV     R3,dichk_temp
004B AA00        R     MOV     R2,dichk_temp+01H
004D A900        R     MOV     R1,dichk_temp+02H
004F 120000      E     LCALL   ?C?CLDPTR
0052 FF                MOV     R7,A
0053 120000      R     LCALL   _TM1640WriteByte
                                           ; SOURCE LINE # 897
0056 120000      R     LCALL   TM1640Stop
                                           ; SOURCE LINE # 899
0059 120000      R     LCALL   TM1640Start
                                           ; SOURCE LINE # 900
005C 7FCE              MOV     R7,#0CEH
005E 120000      R     LCALL   _TM1640WriteByte
                                           ; SOURCE LINE # 901
0061 AB00        R     MOV     R3,dichk_temp
0063 AA00        R     MOV     R2,dichk_temp+01H
0065 A900        R     MOV     R1,dichk_temp+02H
0067 120000      E     LCALL   ?C?CLDPTR
006A FF                MOV     R7,A
C51 COMPILER V9.60.0.0   TM1640                                                            10/03/2022 19:06:34 PAGE 67  

006B 120000      R     LCALL   _TM1640WriteByte
                                           ; SOURCE LINE # 902
006E 120000      R     LCALL   TM1640Stop
                                           ; SOURCE LINE # 904
0071 120000      R     LCALL   TM1640Start
                                           ; SOURCE LINE # 905
0074 7FCF              MOV     R7,#0CFH
0076 120000      R     LCALL   _TM1640WriteByte
                                           ; SOURCE LINE # 906
0079 AB00        R     MOV     R3,dichk_temp
007B AA00        R     MOV     R2,dichk_temp+01H
007D A900        R     MOV     R1,dichk_temp+02H
007F 120000      E     LCALL   ?C?CLDPTR
0082 FF                MOV     R7,A
0083 120000      R     LCALL   _TM1640WriteByte
                                           ; SOURCE LINE # 907
0086 120000      R     LCALL   TM1640Stop
                                           ; SOURCE LINE # 909
0089 120000      R     LCALL   TM1640Start
                                           ; SOURCE LINE # 910
008C 7FCD              MOV     R7,#0CDH
008E 120000      R     LCALL   _TM1640WriteByte
                                           ; SOURCE LINE # 911
0091 AB00        R     MOV     R3,dichk_temp
0093 AA00        R     MOV     R2,dichk_temp+01H
0095 A900        R     MOV     R1,dichk_temp+02H
0097 120000      E     LCALL   ?C?CLDPTR
009A FF                MOV     R7,A
009B 120000      R     LCALL   _TM1640WriteByte
                                           ; SOURCE LINE # 912
009E 120000      R     LCALL   TM1640Stop
                                           ; SOURCE LINE # 914
00A1 120000      R     LCALL   TM1640Start
                                           ; SOURCE LINE # 915
00A4 7FCB              MOV     R7,#0CBH
00A6 120000      R     LCALL   _TM1640WriteByte
                                           ; SOURCE LINE # 916
00A9 AB00        R     MOV     R3,dichk_temp
00AB AA00        R     MOV     R2,dichk_temp+01H
00AD A900        R     MOV     R1,dichk_temp+02H
00AF 120000      E     LCALL   ?C?CLDPTR
00B2 FF                MOV     R7,A
00B3 120000      R     LCALL   _TM1640WriteByte
                                           ; SOURCE LINE # 917
00B6 120000      R     LCALL   TM1640Stop
                                           ; SOURCE LINE # 919
00B9 120000      R     LCALL   TM1640Start
                                           ; SOURCE LINE # 920
00BC 7FC1              MOV     R7,#0C1H
00BE 120000      R     LCALL   _TM1640WriteByte
                                           ; SOURCE LINE # 921
00C1 AB00        R     MOV     R3,dichk_temp
00C3 AA00        R     MOV     R2,dichk_temp+01H
00C5 A900        R     MOV     R1,dichk_temp+02H
00C7 120000      E     LCALL   ?C?CLDPTR
00CA FF                MOV     R7,A
00CB 120000      R     LCALL   _TM1640WriteByte
                                           ; SOURCE LINE # 922
00CE 120000      R     LCALL   TM1640Stop
                                           ; SOURCE LINE # 924
00D1 120000      R     LCALL   TM1640Start
                                           ; SOURCE LINE # 925
C51 COMPILER V9.60.0.0   TM1640                                                            10/03/2022 19:06:34 PAGE 68  

00D4 7FC4              MOV     R7,#0C4H
00D6 120000      R     LCALL   _TM1640WriteByte
                                           ; SOURCE LINE # 926
00D9 AB00        R     MOV     R3,dichk_temp
00DB AA00        R     MOV     R2,dichk_temp+01H
00DD A900        R     MOV     R1,dichk_temp+02H
00DF 120000      E     LCALL   ?C?CLDPTR
00E2 FF                MOV     R7,A
00E3 120000      R     LCALL   _TM1640WriteByte
                                           ; SOURCE LINE # 927
00E6 120000      R     LCALL   TM1640Stop
                                           ; SOURCE LINE # 929
00E9 120000      R     LCALL   TM1640Start
                                           ; SOURCE LINE # 930
00EC 7FC3              MOV     R7,#0C3H
00EE 120000      R     LCALL   _TM1640WriteByte
                                           ; SOURCE LINE # 931
00F1 AB00        R     MOV     R3,dichk_temp
00F3 AA00        R     MOV     R2,dichk_temp+01H
00F5 A900        R     MOV     R1,dichk_temp+02H
00F7 120000      E     LCALL   ?C?CLDPTR
00FA FF                MOV     R7,A
00FB 120000      R     LCALL   _TM1640WriteByte
                                           ; SOURCE LINE # 932
00FE 120000      R     LCALL   TM1640Stop
                                           ; SOURCE LINE # 934
0101 120000      R     LCALL   TM1640Start
                                           ; SOURCE LINE # 935
0104 7FC6              MOV     R7,#0C6H
0106 120000      R     LCALL   _TM1640WriteByte
                                           ; SOURCE LINE # 936
0109 AB00        R     MOV     R3,dichk_temp
010B AA00        R     MOV     R2,dichk_temp+01H
010D A900        R     MOV     R1,dichk_temp+02H
010F 120000      E     LCALL   ?C?CLDPTR
0112 FF                MOV     R7,A
0113 120000      R     LCALL   _TM1640WriteByte
                                           ; SOURCE LINE # 937
0116 120000      R     LCALL   TM1640Stop
                                           ; SOURCE LINE # 939
0119 120000      R     LCALL   TM1640Start
                                           ; SOURCE LINE # 940
011C 7FC5              MOV     R7,#0C5H
011E 120000      R     LCALL   _TM1640WriteByte
                                           ; SOURCE LINE # 941
0121 AB00        R     MOV     R3,dichk_temp
0123 AA00        R     MOV     R2,dichk_temp+01H
0125 A900        R     MOV     R1,dichk_temp+02H
0127 120000      E     LCALL   ?C?CLDPTR
012A FF                MOV     R7,A
012B 120000      R     LCALL   _TM1640WriteByte
                                           ; SOURCE LINE # 942
012E 120000      R     LCALL   TM1640Stop
                                           ; SOURCE LINE # 944
0131 120000      R     LCALL   TM1640Start
                                           ; SOURCE LINE # 945
0134 7FC8              MOV     R7,#0C8H
0136 120000      R     LCALL   _TM1640WriteByte
                                           ; SOURCE LINE # 946
0139 AB00        R     MOV     R3,dichk_temp
013B AA00        R     MOV     R2,dichk_temp+01H
013D A900        R     MOV     R1,dichk_temp+02H
C51 COMPILER V9.60.0.0   TM1640                                                            10/03/2022 19:06:34 PAGE 69  

013F 120000      E     LCALL   ?C?CLDPTR
0142 FF                MOV     R7,A
0143 120000      R     LCALL   _TM1640WriteByte
                                           ; SOURCE LINE # 947
0146 120000      R     LCALL   TM1640Stop
                                           ; SOURCE LINE # 949
0149 120000      R     LCALL   TM1640Start
                                           ; SOURCE LINE # 950
014C 7FC7              MOV     R7,#0C7H
014E 120000      R     LCALL   _TM1640WriteByte
                                           ; SOURCE LINE # 951
0151 AB00        R     MOV     R3,dichk_temp
0153 AA00        R     MOV     R2,dichk_temp+01H
0155 A900        R     MOV     R1,dichk_temp+02H
0157 120000      E     LCALL   ?C?CLDPTR
015A FF                MOV     R7,A
015B 120000      R     LCALL   _TM1640WriteByte
                                           ; SOURCE LINE # 952
015E 120000      R     LCALL   TM1640Stop
                                           ; SOURCE LINE # 954
0161 120000      R     LCALL   TM1640Start
                                           ; SOURCE LINE # 955
0164 7FCA              MOV     R7,#0CAH
0166 120000      R     LCALL   _TM1640WriteByte
                                           ; SOURCE LINE # 956
0169 AB00        R     MOV     R3,dichk_temp
016B AA00        R     MOV     R2,dichk_temp+01H
016D A900        R     MOV     R1,dichk_temp+02H
016F 120000      E     LCALL   ?C?CLDPTR
0172 FF                MOV     R7,A
0173 120000      R     LCALL   _TM1640WriteByte
                                           ; SOURCE LINE # 957
0176 120000      R     LCALL   TM1640Stop
                                           ; SOURCE LINE # 959
0179 120000      R     LCALL   TM1640Start
                                           ; SOURCE LINE # 960
017C 7FC9              MOV     R7,#0C9H
017E 120000      R     LCALL   _TM1640WriteByte
                                           ; SOURCE LINE # 961
0181 AB00        R     MOV     R3,dichk_temp
0183 AA00        R     MOV     R2,dichk_temp+01H
0185 A900        R     MOV     R1,dichk_temp+02H
0187 120000      E     LCALL   ?C?CLDPTR
018A FF                MOV     R7,A
018B 120000      R     LCALL   _TM1640WriteByte
                                           ; SOURCE LINE # 962
018E 120000      R     LCALL   TM1640Stop
                                           ; SOURCE LINE # 968
0191 7FF4              MOV     R7,#0F4H
0193 7E01              MOV     R6,#01H
0195 120000      E     LCALL   _Delay_Some_Time
                                           ; SOURCE LINE # 970
0198 120000      R     LCALL   TM1640Start
                                           ; SOURCE LINE # 971
019B 7FC2              MOV     R7,#0C2H
019D 120000      R     LCALL   _TM1640WriteByte
                                           ; SOURCE LINE # 972
01A0 AB00        R     MOV     R3,dichk_temp
01A2 AA00        R     MOV     R2,dichk_temp+01H
01A4 A900        R     MOV     R1,dichk_temp+02H
01A6 900001            MOV     DPTR,#01H
01A9 120000      R     LCALL   L?0027
C51 COMPILER V9.60.0.0   TM1640                                                            10/03/2022 19:06:34 PAGE 70  

                                           ; SOURCE LINE # 973
01AC 120000      R     LCALL   TM1640Stop
                                           ; SOURCE LINE # 975
01AF 120000      R     LCALL   TM1640Start
                                           ; SOURCE LINE # 976
01B2 7FC0              MOV     R7,#0C0H
01B4 120000      R     LCALL   _TM1640WriteByte
                                           ; SOURCE LINE # 977
01B7 AB00        R     MOV     R3,dichk_temp
01B9 AA00        R     MOV     R2,dichk_temp+01H
01BB A900        R     MOV     R1,dichk_temp+02H
01BD 900001            MOV     DPTR,#01H
01C0 120000      R     LCALL   L?0027
                                           ; SOURCE LINE # 978
01C3 120000      R     LCALL   TM1640Stop
                                           ; SOURCE LINE # 980
01C6 120000      R     LCALL   TM1640Start
                                           ; SOURCE LINE # 981
01C9 7FCC              MOV     R7,#0CCH
01CB 120000      R     LCALL   _TM1640WriteByte
                                           ; SOURCE LINE # 982
01CE AB00        R     MOV     R3,dichk_temp
01D0 AA00        R     MOV     R2,dichk_temp+01H
01D2 A900        R     MOV     R1,dichk_temp+02H
01D4 900001            MOV     DPTR,#01H
01D7 120000      R     LCALL   L?0027
                                           ; SOURCE LINE # 983
01DA 120000      R     LCALL   TM1640Stop
                                           ; SOURCE LINE # 985
01DD 120000      R     LCALL   TM1640Start
                                           ; SOURCE LINE # 986
01E0 7FCE              MOV     R7,#0CEH
01E2 120000      R     LCALL   _TM1640WriteByte
                                           ; SOURCE LINE # 987
01E5 AB00        R     MOV     R3,dichk_temp
01E7 AA00        R     MOV     R2,dichk_temp+01H
01E9 A900        R     MOV     R1,dichk_temp+02H
01EB 900001            MOV     DPTR,#01H
01EE 120000      R     LCALL   L?0027
                                           ; SOURCE LINE # 988
01F1 120000      R     LCALL   TM1640Stop
                                           ; SOURCE LINE # 990
01F4 120000      R     LCALL   TM1640Start
                                           ; SOURCE LINE # 991
01F7 7FCF              MOV     R7,#0CFH
01F9 120000      R     LCALL   _TM1640WriteByte
                                           ; SOURCE LINE # 992
01FC AB00        R     MOV     R3,dichk_temp
01FE AA00        R     MOV     R2,dichk_temp+01H
0200 A900        R     MOV     R1,dichk_temp+02H
0202 900001            MOV     DPTR,#01H
0205 120000      R     LCALL   L?0027
                                           ; SOURCE LINE # 993
0208 120000      R     LCALL   TM1640Stop
                                           ; SOURCE LINE # 995
020B 120000      R     LCALL   TM1640Start
                                           ; SOURCE LINE # 996
020E 7FCD              MOV     R7,#0CDH
0210 120000      R     LCALL   _TM1640WriteByte
                                           ; SOURCE LINE # 997
0213 AB00        R     MOV     R3,dichk_temp
0215 AA00        R     MOV     R2,dichk_temp+01H
C51 COMPILER V9.60.0.0   TM1640                                                            10/03/2022 19:06:34 PAGE 71  

0217 A900        R     MOV     R1,dichk_temp+02H
0219 900001            MOV     DPTR,#01H
021C 120000      R     LCALL   L?0027
                                           ; SOURCE LINE # 998
021F 120000      R     LCALL   TM1640Stop
                                           ; SOURCE LINE # 1000
0222 120000      R     LCALL   TM1640Start
                                           ; SOURCE LINE # 1001
0225 7FCB              MOV     R7,#0CBH
0227 120000      R     LCALL   _TM1640WriteByte
                                           ; SOURCE LINE # 1002
022A AB00        R     MOV     R3,dichk_temp
022C AA00        R     MOV     R2,dichk_temp+01H
022E A900        R     MOV     R1,dichk_temp+02H
0230 900001            MOV     DPTR,#01H
0233 120000      R     LCALL   L?0027
                                           ; SOURCE LINE # 1003
0236 120000      R     LCALL   TM1640Stop
                                           ; SOURCE LINE # 1005
0239 120000      R     LCALL   TM1640Start
                                           ; SOURCE LINE # 1006
023C 7FC1              MOV     R7,#0C1H
023E 120000      R     LCALL   _TM1640WriteByte
                                           ; SOURCE LINE # 1007
0241 AB00        R     MOV     R3,dichk_temp
0243 AA00        R     MOV     R2,dichk_temp+01H
0245 A900        R     MOV     R1,dichk_temp+02H
0247 900001            MOV     DPTR,#01H
024A 120000      R     LCALL   L?0027
                                           ; SOURCE LINE # 1008
024D 120000      R     LCALL   TM1640Stop
                                           ; SOURCE LINE # 1010
0250 120000      R     LCALL   TM1640Start
                                           ; SOURCE LINE # 1011
0253 7FC4              MOV     R7,#0C4H
0255 120000      R     LCALL   _TM1640WriteByte
                                           ; SOURCE LINE # 1012
0258 AB00        R     MOV     R3,dichk_temp
025A AA00        R     MOV     R2,dichk_temp+01H
025C A900        R     MOV     R1,dichk_temp+02H
025E 900001            MOV     DPTR,#01H
0261 120000      R     LCALL   L?0027
                                           ; SOURCE LINE # 1013
0264 120000      R     LCALL   TM1640Stop
                                           ; SOURCE LINE # 1015
0267 120000      R     LCALL   TM1640Start
                                           ; SOURCE LINE # 1016
026A 7FC3              MOV     R7,#0C3H
026C 120000      R     LCALL   _TM1640WriteByte
                                           ; SOURCE LINE # 1017
026F AB00        R     MOV     R3,dichk_temp
0271 AA00        R     MOV     R2,dichk_temp+01H
0273 A900        R     MOV     R1,dichk_temp+02H
0275 900001            MOV     DPTR,#01H
0278 120000      R     LCALL   L?0027
                                           ; SOURCE LINE # 1018
027B 120000      R     LCALL   TM1640Stop
                                           ; SOURCE LINE # 1020
027E 120000      R     LCALL   TM1640Start
                                           ; SOURCE LINE # 1021
0281 7FC6              MOV     R7,#0C6H
0283 120000      R     LCALL   _TM1640WriteByte
C51 COMPILER V9.60.0.0   TM1640                                                            10/03/2022 19:06:34 PAGE 72  

                                           ; SOURCE LINE # 1022
0286 AB00        R     MOV     R3,dichk_temp
0288 AA00        R     MOV     R2,dichk_temp+01H
028A A900        R     MOV     R1,dichk_temp+02H
028C 900001            MOV     DPTR,#01H
028F 120000      R     LCALL   L?0027
                                           ; SOURCE LINE # 1023
0292 120000      R     LCALL   TM1640Stop
                                           ; SOURCE LINE # 1025
0295 120000      R     LCALL   TM1640Start
                                           ; SOURCE LINE # 1026
0298 7FC5              MOV     R7,#0C5H
029A 120000      R     LCALL   _TM1640WriteByte
                                           ; SOURCE LINE # 1027
029D AB00        R     MOV     R3,dichk_temp
029F AA00        R     MOV     R2,dichk_temp+01H
02A1 A900        R     MOV     R1,dichk_temp+02H
02A3 900001            MOV     DPTR,#01H
02A6 120000      R     LCALL   L?0027
                                           ; SOURCE LINE # 1028
02A9 120000      R     LCALL   TM1640Stop
                                           ; SOURCE LINE # 1030
02AC 120000      R     LCALL   TM1640Start
                                           ; SOURCE LINE # 1031
02AF 7FC8              MOV     R7,#0C8H
02B1 120000      R     LCALL   _TM1640WriteByte
                                           ; SOURCE LINE # 1032
02B4 AB00        R     MOV     R3,dichk_temp
02B6 AA00        R     MOV     R2,dichk_temp+01H
02B8 A900        R     MOV     R1,dichk_temp+02H
02BA 900001            MOV     DPTR,#01H
02BD 120000      R     LCALL   L?0027
                                           ; SOURCE LINE # 1033
02C0 120000      R     LCALL   TM1640Stop
                                           ; SOURCE LINE # 1035
02C3 120000      R     LCALL   TM1640Start
                                           ; SOURCE LINE # 1036
02C6 7FC7              MOV     R7,#0C7H
02C8 120000      R     LCALL   _TM1640WriteByte
                                           ; SOURCE LINE # 1037
02CB AB00        R     MOV     R3,dichk_temp
02CD AA00        R     MOV     R2,dichk_temp+01H
02CF A900        R     MOV     R1,dichk_temp+02H
02D1 900001            MOV     DPTR,#01H
02D4 120000      R     LCALL   L?0027
                                           ; SOURCE LINE # 1038
02D7 120000      R     LCALL   TM1640Stop
                                           ; SOURCE LINE # 1040
02DA 120000      R     LCALL   TM1640Start
                                           ; SOURCE LINE # 1041
02DD 7FCA              MOV     R7,#0CAH
02DF 120000      R     LCALL   _TM1640WriteByte
                                           ; SOURCE LINE # 1042
02E2 AB00        R     MOV     R3,dichk_temp
02E4 AA00        R     MOV     R2,dichk_temp+01H
02E6 A900        R     MOV     R1,dichk_temp+02H
02E8 900001            MOV     DPTR,#01H
02EB 120000      R     LCALL   L?0027
                                           ; SOURCE LINE # 1043
02EE 120000      R     LCALL   TM1640Stop
                                           ; SOURCE LINE # 1045
02F1 120000      R     LCALL   TM1640Start
C51 COMPILER V9.60.0.0   TM1640                                                            10/03/2022 19:06:34 PAGE 73  

                                           ; SOURCE LINE # 1046
02F4 7FC9              MOV     R7,#0C9H
02F6 120000      R     LCALL   _TM1640WriteByte
                                           ; SOURCE LINE # 1047
02F9 AB00        R     MOV     R3,dichk_temp
02FB AA00        R     MOV     R2,dichk_temp+01H
02FD A900        R     MOV     R1,dichk_temp+02H
02FF 900001            MOV     DPTR,#01H
0302 120000      R     LCALL   L?0027
                                           ; SOURCE LINE # 1048
0305 120000      R     LCALL   TM1640Stop
                                           ; SOURCE LINE # 1050
0308 7FF4              MOV     R7,#0F4H
030A 7E01              MOV     R6,#01H
030C 120000      E     LCALL   _Delay_Some_Time
                                           ; SOURCE LINE # 1052
030F 120000      R     LCALL   TM1640Start
                                           ; SOURCE LINE # 1053
0312 7FC2              MOV     R7,#0C2H
0314 120000      R     LCALL   _TM1640WriteByte
                                           ; SOURCE LINE # 1054
0317 AB00        R     MOV     R3,dichk_temp
0319 AA00        R     MOV     R2,dichk_temp+01H
031B A900        R     MOV     R1,dichk_temp+02H
031D 900002            MOV     DPTR,#02H
0320 120000      R     LCALL   L?0027
                                           ; SOURCE LINE # 1055
0323 120000      R     LCALL   TM1640Stop
                                           ; SOURCE LINE # 1057
0326 120000      R     LCALL   TM1640Start
                                           ; SOURCE LINE # 1058
0329 7FC0              MOV     R7,#0C0H
032B 120000      R     LCALL   _TM1640WriteByte
                                           ; SOURCE LINE # 1059
032E AB00        R     MOV     R3,dichk_temp
0330 AA00        R     MOV     R2,dichk_temp+01H
0332 A900        R     MOV     R1,dichk_temp+02H
0334 900002            MOV     DPTR,#02H
0337 120000      R     LCALL   L?0027
                                           ; SOURCE LINE # 1060
033A 120000      R     LCALL   TM1640Stop
                                           ; SOURCE LINE # 1062
033D 120000      R     LCALL   TM1640Start
                                           ; SOURCE LINE # 1063
0340 7FCC              MOV     R7,#0CCH
0342 120000      R     LCALL   _TM1640WriteByte
                                           ; SOURCE LINE # 1064
0345 AB00        R     MOV     R3,dichk_temp
0347 AA00        R     MOV     R2,dichk_temp+01H
0349 A900        R     MOV     R1,dichk_temp+02H
034B 900002            MOV     DPTR,#02H
034E 120000      R     LCALL   L?0027
                                           ; SOURCE LINE # 1065
0351 120000      R     LCALL   TM1640Stop
                                           ; SOURCE LINE # 1067
0354 120000      R     LCALL   TM1640Start
                                           ; SOURCE LINE # 1068
0357 7FCE              MOV     R7,#0CEH
0359 120000      R     LCALL   _TM1640WriteByte
                                           ; SOURCE LINE # 1069
035C AB00        R     MOV     R3,dichk_temp
035E AA00        R     MOV     R2,dichk_temp+01H
C51 COMPILER V9.60.0.0   TM1640                                                            10/03/2022 19:06:34 PAGE 74  

0360 A900        R     MOV     R1,dichk_temp+02H
0362 900002            MOV     DPTR,#02H
0365 120000      R     LCALL   L?0027
                                           ; SOURCE LINE # 1070
0368 120000      R     LCALL   TM1640Stop
                                           ; SOURCE LINE # 1072
036B 120000      R     LCALL   TM1640Start
                                           ; SOURCE LINE # 1073
036E 7FCF              MOV     R7,#0CFH
0370 120000      R     LCALL   _TM1640WriteByte
                                           ; SOURCE LINE # 1074
0373 AB00        R     MOV     R3,dichk_temp
0375 AA00        R     MOV     R2,dichk_temp+01H
0377 A900        R     MOV     R1,dichk_temp+02H
0379 900002            MOV     DPTR,#02H
037C 120000      R     LCALL   L?0027
                                           ; SOURCE LINE # 1075
037F 120000      R     LCALL   TM1640Stop
                                           ; SOURCE LINE # 1077
0382 120000      R     LCALL   TM1640Start
                                           ; SOURCE LINE # 1078
0385 7FCD              MOV     R7,#0CDH
0387 120000      R     LCALL   _TM1640WriteByte
                                           ; SOURCE LINE # 1079
038A AB00        R     MOV     R3,dichk_temp
038C AA00        R     MOV     R2,dichk_temp+01H
038E A900        R     MOV     R1,dichk_temp+02H
0390 900002            MOV     DPTR,#02H
0393 120000      R     LCALL   L?0027
                                           ; SOURCE LINE # 1080
0396 120000      R     LCALL   TM1640Stop
                                           ; SOURCE LINE # 1082
0399 120000      R     LCALL   TM1640Start
                                           ; SOURCE LINE # 1083
039C 7FCB              MOV     R7,#0CBH
039E 120000      R     LCALL   _TM1640WriteByte
                                           ; SOURCE LINE # 1084
03A1 AB00        R     MOV     R3,dichk_temp
03A3 AA00        R     MOV     R2,dichk_temp+01H
03A5 A900        R     MOV     R1,dichk_temp+02H
03A7 900002            MOV     DPTR,#02H
03AA 120000      R     LCALL   L?0027
                                           ; SOURCE LINE # 1085
03AD 120000      R     LCALL   TM1640Stop
                                           ; SOURCE LINE # 1087
03B0 120000      R     LCALL   TM1640Start
                                           ; SOURCE LINE # 1088
03B3 7FC1              MOV     R7,#0C1H
03B5 120000      R     LCALL   _TM1640WriteByte
                                           ; SOURCE LINE # 1089
03B8 AB00        R     MOV     R3,dichk_temp
03BA AA00        R     MOV     R2,dichk_temp+01H
03BC A900        R     MOV     R1,dichk_temp+02H
03BE 900002            MOV     DPTR,#02H
03C1 120000      R     LCALL   L?0027
                                           ; SOURCE LINE # 1090
03C4 120000      R     LCALL   TM1640Stop
                                           ; SOURCE LINE # 1092
03C7 120000      R     LCALL   TM1640Start
                                           ; SOURCE LINE # 1093
03CA 7FC4              MOV     R7,#0C4H
03CC 120000      R     LCALL   _TM1640WriteByte
C51 COMPILER V9.60.0.0   TM1640                                                            10/03/2022 19:06:34 PAGE 75  

                                           ; SOURCE LINE # 1094
03CF AB00        R     MOV     R3,dichk_temp
03D1 AA00        R     MOV     R2,dichk_temp+01H
03D3 A900        R     MOV     R1,dichk_temp+02H
03D5 900002            MOV     DPTR,#02H
03D8 120000      R     LCALL   L?0027
                                           ; SOURCE LINE # 1095
03DB 120000      R     LCALL   TM1640Stop
                                           ; SOURCE LINE # 1097
03DE 120000      R     LCALL   TM1640Start
                                           ; SOURCE LINE # 1098
03E1 7FC3              MOV     R7,#0C3H
03E3 120000      R     LCALL   _TM1640WriteByte
                                           ; SOURCE LINE # 1099
03E6 AB00        R     MOV     R3,dichk_temp
03E8 AA00        R     MOV     R2,dichk_temp+01H
03EA A900        R     MOV     R1,dichk_temp+02H
03EC 900002            MOV     DPTR,#02H
03EF 120000      R     LCALL   L?0027
                                           ; SOURCE LINE # 1100
03F2 120000      R     LCALL   TM1640Stop
                                           ; SOURCE LINE # 1102
03F5 120000      R     LCALL   TM1640Start
                                           ; SOURCE LINE # 1103
03F8 7FC6              MOV     R7,#0C6H
03FA 120000      R     LCALL   _TM1640WriteByte
                                           ; SOURCE LINE # 1104
03FD AB00        R     MOV     R3,dichk_temp
03FF AA00        R     MOV     R2,dichk_temp+01H
0401 A900        R     MOV     R1,dichk_temp+02H
0403 900002            MOV     DPTR,#02H
0406 120000      R     LCALL   L?0027
                                           ; SOURCE LINE # 1105
0409 120000      R     LCALL   TM1640Stop
                                           ; SOURCE LINE # 1107
040C 120000      R     LCALL   TM1640Start
                                           ; SOURCE LINE # 1108
040F 7FC5              MOV     R7,#0C5H
0411 120000      R     LCALL   _TM1640WriteByte
                                           ; SOURCE LINE # 1109
0414 AB00        R     MOV     R3,dichk_temp
0416 AA00        R     MOV     R2,dichk_temp+01H
0418 A900        R     MOV     R1,dichk_temp+02H
041A 900002            MOV     DPTR,#02H
041D 120000      R     LCALL   L?0027
                                           ; SOURCE LINE # 1110
0420 120000      R     LCALL   TM1640Stop
                                           ; SOURCE LINE # 1112
0423 120000      R     LCALL   TM1640Start
                                           ; SOURCE LINE # 1113
0426 7FC8              MOV     R7,#0C8H
0428 120000      R     LCALL   _TM1640WriteByte
                                           ; SOURCE LINE # 1114
042B AB00        R     MOV     R3,dichk_temp
042D AA00        R     MOV     R2,dichk_temp+01H
042F A900        R     MOV     R1,dichk_temp+02H
0431 900002            MOV     DPTR,#02H
0434 120000      R     LCALL   L?0027
                                           ; SOURCE LINE # 1115
0437 120000      R     LCALL   TM1640Stop
                                           ; SOURCE LINE # 1117
043A 120000      R     LCALL   TM1640Start
C51 COMPILER V9.60.0.0   TM1640                                                            10/03/2022 19:06:34 PAGE 76  

                                           ; SOURCE LINE # 1118
043D 7FC7              MOV     R7,#0C7H
043F 120000      R     LCALL   _TM1640WriteByte
                                           ; SOURCE LINE # 1119
0442 AB00        R     MOV     R3,dichk_temp
0444 AA00        R     MOV     R2,dichk_temp+01H
0446 A900        R     MOV     R1,dichk_temp+02H
0448 900002            MOV     DPTR,#02H
044B 120000      R     LCALL   L?0027
                                           ; SOURCE LINE # 1120
044E 120000      R     LCALL   TM1640Stop
                                           ; SOURCE LINE # 1122
0451 120000      R     LCALL   TM1640Start
                                           ; SOURCE LINE # 1123
0454 7FCA              MOV     R7,#0CAH
0456 120000      R     LCALL   _TM1640WriteByte
                                           ; SOURCE LINE # 1124
0459 AB00        R     MOV     R3,dichk_temp
045B AA00        R     MOV     R2,dichk_temp+01H
045D A900        R     MOV     R1,dichk_temp+02H
045F 900002            MOV     DPTR,#02H
0462 120000      R     LCALL   L?0027
                                           ; SOURCE LINE # 1125
0465 120000      R     LCALL   TM1640Stop
                                           ; SOURCE LINE # 1127
0468 120000      R     LCALL   TM1640Start
                                           ; SOURCE LINE # 1128
046B 7FC9              MOV     R7,#0C9H
046D 120000      R     LCALL   _TM1640WriteByte
                                           ; SOURCE LINE # 1129
0470 AB00        R     MOV     R3,dichk_temp
0472 AA00        R     MOV     R2,dichk_temp+01H
0474 A900        R     MOV     R1,dichk_temp+02H
0476 900002            MOV     DPTR,#02H
0479 120000      R     LCALL   L?0027
                                           ; SOURCE LINE # 1130
047C 120000      R     LCALL   TM1640Stop
                                           ; SOURCE LINE # 1132
047F 7FF4              MOV     R7,#0F4H
0481 7E01              MOV     R6,#01H
0483 120000      E     LCALL   _Delay_Some_Time
                                           ; SOURCE LINE # 1134
0486 120000      R     LCALL   TM1640Start
                                           ; SOURCE LINE # 1135
0489 7FC2              MOV     R7,#0C2H
048B 120000      R     LCALL   _TM1640WriteByte
                                           ; SOURCE LINE # 1136
048E AB00        R     MOV     R3,dichk_temp
0490 AA00        R     MOV     R2,dichk_temp+01H
0492 A900        R     MOV     R1,dichk_temp+02H
0494 900003            MOV     DPTR,#03H
0497 120000      R     LCALL   L?0027
                                           ; SOURCE LINE # 1137
049A 120000      R     LCALL   TM1640Stop
                                           ; SOURCE LINE # 1139
049D 120000      R     LCALL   TM1640Start
                                           ; SOURCE LINE # 1140
04A0 7FC0              MOV     R7,#0C0H
04A2 120000      R     LCALL   _TM1640WriteByte
                                           ; SOURCE LINE # 1141
04A5 AB00        R     MOV     R3,dichk_temp
04A7 AA00        R     MOV     R2,dichk_temp+01H
C51 COMPILER V9.60.0.0   TM1640                                                            10/03/2022 19:06:34 PAGE 77  

04A9 A900        R     MOV     R1,dichk_temp+02H
04AB 900003            MOV     DPTR,#03H
04AE 120000      R     LCALL   L?0027
                                           ; SOURCE LINE # 1142
04B1 120000      R     LCALL   TM1640Stop
                                           ; SOURCE LINE # 1144
04B4 120000      R     LCALL   TM1640Start
                                           ; SOURCE LINE # 1145
04B7 7FCC              MOV     R7,#0CCH
04B9 120000      R     LCALL   _TM1640WriteByte
                                           ; SOURCE LINE # 1146
04BC AB00        R     MOV     R3,dichk_temp
04BE AA00        R     MOV     R2,dichk_temp+01H
04C0 A900        R     MOV     R1,dichk_temp+02H
04C2 900003            MOV     DPTR,#03H
04C5 120000      R     LCALL   L?0027
                                           ; SOURCE LINE # 1147
04C8 120000      R     LCALL   TM1640Stop
                                           ; SOURCE LINE # 1149
04CB 120000      R     LCALL   TM1640Start
                                           ; SOURCE LINE # 1150
04CE 7FCE              MOV     R7,#0CEH
04D0 120000      R     LCALL   _TM1640WriteByte
                                           ; SOURCE LINE # 1151
04D3 AB00        R     MOV     R3,dichk_temp
04D5 AA00        R     MOV     R2,dichk_temp+01H
04D7 A900        R     MOV     R1,dichk_temp+02H
04D9 900003            MOV     DPTR,#03H
04DC 120000      R     LCALL   L?0027
                                           ; SOURCE LINE # 1152
04DF 120000      R     LCALL   TM1640Stop
                                           ; SOURCE LINE # 1154
04E2 120000      R     LCALL   TM1640Start
                                           ; SOURCE LINE # 1155
04E5 7FCF              MOV     R7,#0CFH
04E7 120000      R     LCALL   _TM1640WriteByte
                                           ; SOURCE LINE # 1156
04EA AB00        R     MOV     R3,dichk_temp
04EC AA00        R     MOV     R2,dichk_temp+01H
04EE A900        R     MOV     R1,dichk_temp+02H
04F0 900003            MOV     DPTR,#03H
04F3 120000      R     LCALL   L?0027
                                           ; SOURCE LINE # 1157
04F6 120000      R     LCALL   TM1640Stop
                                           ; SOURCE LINE # 1159
04F9 120000      R     LCALL   TM1640Start
                                           ; SOURCE LINE # 1160
04FC 7FCD              MOV     R7,#0CDH
04FE 120000      R     LCALL   _TM1640WriteByte
                                           ; SOURCE LINE # 1161
0501 AB00        R     MOV     R3,dichk_temp
0503 AA00        R     MOV     R2,dichk_temp+01H
0505 A900        R     MOV     R1,dichk_temp+02H
0507 900003            MOV     DPTR,#03H
050A 120000      R     LCALL   L?0027
                                           ; SOURCE LINE # 1162
050D 120000      R     LCALL   TM1640Stop
                                           ; SOURCE LINE # 1164
0510 120000      R     LCALL   TM1640Start
                                           ; SOURCE LINE # 1165
0513 7FCB              MOV     R7,#0CBH
0515 120000      R     LCALL   _TM1640WriteByte
C51 COMPILER V9.60.0.0   TM1640                                                            10/03/2022 19:06:34 PAGE 78  

                                           ; SOURCE LINE # 1166
0518 AB00        R     MOV     R3,dichk_temp
051A AA00        R     MOV     R2,dichk_temp+01H
051C A900        R     MOV     R1,dichk_temp+02H
051E 900003            MOV     DPTR,#03H
0521 120000      R     LCALL   L?0027
                                           ; SOURCE LINE # 1167
0524 120000      R     LCALL   TM1640Stop
                                           ; SOURCE LINE # 1169
0527 120000      R     LCALL   TM1640Start
                                           ; SOURCE LINE # 1170
052A 7FC1              MOV     R7,#0C1H
052C 120000      R     LCALL   _TM1640WriteByte
                                           ; SOURCE LINE # 1171
052F AB00        R     MOV     R3,dichk_temp
0531 AA00        R     MOV     R2,dichk_temp+01H
0533 A900        R     MOV     R1,dichk_temp+02H
0535 900003            MOV     DPTR,#03H
0538 120000      R     LCALL   L?0027
                                           ; SOURCE LINE # 1172
053B 120000      R     LCALL   TM1640Stop
                                           ; SOURCE LINE # 1174
053E 120000      R     LCALL   TM1640Start
                                           ; SOURCE LINE # 1175
0541 7FC4              MOV     R7,#0C4H
0543 120000      R     LCALL   _TM1640WriteByte
                                           ; SOURCE LINE # 1176
0546 AB00        R     MOV     R3,dichk_temp
0548 AA00        R     MOV     R2,dichk_temp+01H
054A A900        R     MOV     R1,dichk_temp+02H
054C 900003            MOV     DPTR,#03H
054F 120000      R     LCALL   L?0027
                                           ; SOURCE LINE # 1177
0552 120000      R     LCALL   TM1640Stop
                                           ; SOURCE LINE # 1179
0555 120000      R     LCALL   TM1640Start
                                           ; SOURCE LINE # 1180
0558 7FC3              MOV     R7,#0C3H
055A 120000      R     LCALL   _TM1640WriteByte
                                           ; SOURCE LINE # 1181
055D AB00        R     MOV     R3,dichk_temp
055F AA00        R     MOV     R2,dichk_temp+01H
0561 A900        R     MOV     R1,dichk_temp+02H
0563 900003            MOV     DPTR,#03H
0566 120000      R     LCALL   L?0027
                                           ; SOURCE LINE # 1182
0569 120000      R     LCALL   TM1640Stop
                                           ; SOURCE LINE # 1184
056C 120000      R     LCALL   TM1640Start
                                           ; SOURCE LINE # 1185
056F 7FC6              MOV     R7,#0C6H
0571 120000      R     LCALL   _TM1640WriteByte
                                           ; SOURCE LINE # 1186
0574 AB00        R     MOV     R3,dichk_temp
0576 AA00        R     MOV     R2,dichk_temp+01H
0578 A900        R     MOV     R1,dichk_temp+02H
057A 900003            MOV     DPTR,#03H
057D 120000      R     LCALL   L?0027
                                           ; SOURCE LINE # 1187
0580 120000      R     LCALL   TM1640Stop
                                           ; SOURCE LINE # 1189
0583 120000      R     LCALL   TM1640Start
C51 COMPILER V9.60.0.0   TM1640                                                            10/03/2022 19:06:34 PAGE 79  

                                           ; SOURCE LINE # 1190
0586 7FC5              MOV     R7,#0C5H
0588 120000      R     LCALL   _TM1640WriteByte
                                           ; SOURCE LINE # 1191
058B AB00        R     MOV     R3,dichk_temp
058D AA00        R     MOV     R2,dichk_temp+01H
058F A900        R     MOV     R1,dichk_temp+02H
0591 900003            MOV     DPTR,#03H
0594 120000      R     LCALL   L?0027
                                           ; SOURCE LINE # 1192
0597 120000      R     LCALL   TM1640Stop
                                           ; SOURCE LINE # 1194
059A 120000      R     LCALL   TM1640Start
                                           ; SOURCE LINE # 1195
059D 7FC8              MOV     R7,#0C8H
059F 120000      R     LCALL   _TM1640WriteByte
                                           ; SOURCE LINE # 1196
05A2 AB00        R     MOV     R3,dichk_temp
05A4 AA00        R     MOV     R2,dichk_temp+01H
05A6 A900        R     MOV     R1,dichk_temp+02H
05A8 900003            MOV     DPTR,#03H
05AB 120000      R     LCALL   L?0027
                                           ; SOURCE LINE # 1197
05AE 120000      R     LCALL   TM1640Stop
                                           ; SOURCE LINE # 1199
05B1 120000      R     LCALL   TM1640Start
                                           ; SOURCE LINE # 1200
05B4 7FC7              MOV     R7,#0C7H
05B6 120000      R     LCALL   _TM1640WriteByte
                                           ; SOURCE LINE # 1201
05B9 AB00        R     MOV     R3,dichk_temp
05BB AA00        R     MOV     R2,dichk_temp+01H
05BD A900        R     MOV     R1,dichk_temp+02H
05BF 900003            MOV     DPTR,#03H
05C2 120000      R     LCALL   L?0027
                                           ; SOURCE LINE # 1202
05C5 120000      R     LCALL   TM1640Stop
                                           ; SOURCE LINE # 1204
05C8 120000      R     LCALL   TM1640Start
                                           ; SOURCE LINE # 1205
05CB 7FCA              MOV     R7,#0CAH
05CD 120000      R     LCALL   _TM1640WriteByte
                                           ; SOURCE LINE # 1206
05D0 AB00        R     MOV     R3,dichk_temp
05D2 AA00        R     MOV     R2,dichk_temp+01H
05D4 A900        R     MOV     R1,dichk_temp+02H
05D6 900003            MOV     DPTR,#03H
05D9 120000      R     LCALL   L?0027
                                           ; SOURCE LINE # 1207
05DC 120000      R     LCALL   TM1640Stop
                                           ; SOURCE LINE # 1209
05DF 120000      R     LCALL   TM1640Start
                                           ; SOURCE LINE # 1210
05E2 7FC9              MOV     R7,#0C9H
05E4 120000      R     LCALL   _TM1640WriteByte
                                           ; SOURCE LINE # 1211
05E7 AB00        R     MOV     R3,dichk_temp
05E9 AA00        R     MOV     R2,dichk_temp+01H
05EB A900        R     MOV     R1,dichk_temp+02H
05ED 900003            MOV     DPTR,#03H
05F0 120000      R     LCALL   L?0027
                                           ; SOURCE LINE # 1212
C51 COMPILER V9.60.0.0   TM1640                                                            10/03/2022 19:06:34 PAGE 80  

05F3 120000      R     LCALL   TM1640Stop
                                           ; SOURCE LINE # 1214
05F6 7FF4              MOV     R7,#0F4H
05F8 7E01              MOV     R6,#01H
05FA 120000      E     LCALL   _Delay_Some_Time
                                           ; SOURCE LINE # 1216
05FD 120000      R     LCALL   TM1640Start
                                           ; SOURCE LINE # 1217
0600 7FC2              MOV     R7,#0C2H
0602 120000      R     LCALL   _TM1640WriteByte
                                           ; SOURCE LINE # 1218
0605 AB00        R     MOV     R3,dichk_temp
0607 AA00        R     MOV     R2,dichk_temp+01H
0609 A900        R     MOV     R1,dichk_temp+02H
060B 900004            MOV     DPTR,#04H
060E 120000      R     LCALL   L?0027
                                           ; SOURCE LINE # 1219
0611 120000      R     LCALL   TM1640Stop
                                           ; SOURCE LINE # 1221
0614 120000      R     LCALL   TM1640Start
                                           ; SOURCE LINE # 1222
0617 7FC0              MOV     R7,#0C0H
0619 120000      R     LCALL   _TM1640WriteByte
                                           ; SOURCE LINE # 1223
061C AB00        R     MOV     R3,dichk_temp
061E AA00        R     MOV     R2,dichk_temp+01H
0620 A900        R     MOV     R1,dichk_temp+02H
0622 900004            MOV     DPTR,#04H
0625 120000      R     LCALL   L?0027
                                           ; SOURCE LINE # 1224
0628 120000      R     LCALL   TM1640Stop
                                           ; SOURCE LINE # 1226
062B 120000      R     LCALL   TM1640Start
                                           ; SOURCE LINE # 1227
062E 7FCC              MOV     R7,#0CCH
0630 120000      R     LCALL   _TM1640WriteByte
                                           ; SOURCE LINE # 1228
0633 AB00        R     MOV     R3,dichk_temp
0635 AA00        R     MOV     R2,dichk_temp+01H
0637 A900        R     MOV     R1,dichk_temp+02H
0639 900004            MOV     DPTR,#04H
063C 120000      R     LCALL   L?0027
                                           ; SOURCE LINE # 1229
063F 120000      R     LCALL   TM1640Stop
                                           ; SOURCE LINE # 1231
0642 120000      R     LCALL   TM1640Start
                                           ; SOURCE LINE # 1232
0645 7FCE              MOV     R7,#0CEH
0647 120000      R     LCALL   _TM1640WriteByte
                                           ; SOURCE LINE # 1233
064A AB00        R     MOV     R3,dichk_temp
064C AA00        R     MOV     R2,dichk_temp+01H
064E A900        R     MOV     R1,dichk_temp+02H
0650 900004            MOV     DPTR,#04H
0653 120000      R     LCALL   L?0027
                                           ; SOURCE LINE # 1234
0656 120000      R     LCALL   TM1640Stop
                                           ; SOURCE LINE # 1236
0659 120000      R     LCALL   TM1640Start
                                           ; SOURCE LINE # 1237
065C 7FCF              MOV     R7,#0CFH
065E 120000      R     LCALL   _TM1640WriteByte
C51 COMPILER V9.60.0.0   TM1640                                                            10/03/2022 19:06:34 PAGE 81  

                                           ; SOURCE LINE # 1238
0661 AB00        R     MOV     R3,dichk_temp
0663 AA00        R     MOV     R2,dichk_temp+01H
0665 A900        R     MOV     R1,dichk_temp+02H
0667 900004            MOV     DPTR,#04H
066A 120000      R     LCALL   L?0027
                                           ; SOURCE LINE # 1239
066D 120000      R     LCALL   TM1640Stop
                                           ; SOURCE LINE # 1241
0670 120000      R     LCALL   TM1640Start
                                           ; SOURCE LINE # 1242
0673 7FCD              MOV     R7,#0CDH
0675 120000      R     LCALL   _TM1640WriteByte
                                           ; SOURCE LINE # 1243
0678 AB00        R     MOV     R3,dichk_temp
067A AA00        R     MOV     R2,dichk_temp+01H
067C A900        R     MOV     R1,dichk_temp+02H
067E 900004            MOV     DPTR,#04H
0681 120000      R     LCALL   L?0027
                                           ; SOURCE LINE # 1244
0684 120000      R     LCALL   TM1640Stop
                                           ; SOURCE LINE # 1246
0687 120000      R     LCALL   TM1640Start
                                           ; SOURCE LINE # 1247
068A 7FCB              MOV     R7,#0CBH
068C 120000      R     LCALL   _TM1640WriteByte
                                           ; SOURCE LINE # 1248
068F AB00        R     MOV     R3,dichk_temp
0691 AA00        R     MOV     R2,dichk_temp+01H
0693 A900        R     MOV     R1,dichk_temp+02H
0695 900004            MOV     DPTR,#04H
0698 120000      R     LCALL   L?0027
                                           ; SOURCE LINE # 1249
069B 120000      R     LCALL   TM1640Stop
                                           ; SOURCE LINE # 1251
069E 120000      R     LCALL   TM1640Start
                                           ; SOURCE LINE # 1252
06A1 7FC1              MOV     R7,#0C1H
06A3 120000      R     LCALL   _TM1640WriteByte
                                           ; SOURCE LINE # 1253
06A6 AB00        R     MOV     R3,dichk_temp
06A8 AA00        R     MOV     R2,dichk_temp+01H
06AA A900        R     MOV     R1,dichk_temp+02H
06AC 900004            MOV     DPTR,#04H
06AF 120000      R     LCALL   L?0027
                                           ; SOURCE LINE # 1254
06B2 120000      R     LCALL   TM1640Stop
                                           ; SOURCE LINE # 1256
06B5 120000      R     LCALL   TM1640Start
                                           ; SOURCE LINE # 1257
06B8 7FC4              MOV     R7,#0C4H
06BA 120000      R     LCALL   _TM1640WriteByte
                                           ; SOURCE LINE # 1258
06BD AB00        R     MOV     R3,dichk_temp
06BF AA00        R     MOV     R2,dichk_temp+01H
06C1 A900        R     MOV     R1,dichk_temp+02H
06C3 900004            MOV     DPTR,#04H
06C6 120000      R     LCALL   L?0027
                                           ; SOURCE LINE # 1259
06C9 120000      R     LCALL   TM1640Stop
                                           ; SOURCE LINE # 1261
06CC 120000      R     LCALL   TM1640Start
C51 COMPILER V9.60.0.0   TM1640                                                            10/03/2022 19:06:34 PAGE 82  

                                           ; SOURCE LINE # 1262
06CF 7FC3              MOV     R7,#0C3H
06D1 120000      R     LCALL   _TM1640WriteByte
                                           ; SOURCE LINE # 1263
06D4 AB00        R     MOV     R3,dichk_temp
06D6 AA00        R     MOV     R2,dichk_temp+01H
06D8 A900        R     MOV     R1,dichk_temp+02H
06DA 900004            MOV     DPTR,#04H
06DD 120000      R     LCALL   L?0027
                                           ; SOURCE LINE # 1264
06E0 120000      R     LCALL   TM1640Stop
                                           ; SOURCE LINE # 1266
06E3 120000      R     LCALL   TM1640Start
                                           ; SOURCE LINE # 1267
06E6 7FC6              MOV     R7,#0C6H
06E8 120000      R     LCALL   _TM1640WriteByte
                                           ; SOURCE LINE # 1268
06EB AB00        R     MOV     R3,dichk_temp
06ED AA00        R     MOV     R2,dichk_temp+01H
06EF A900        R     MOV     R1,dichk_temp+02H
06F1 900004            MOV     DPTR,#04H
06F4 120000      R     LCALL   L?0027
                                           ; SOURCE LINE # 1269
06F7 120000      R     LCALL   TM1640Stop
                                           ; SOURCE LINE # 1271
06FA 120000      R     LCALL   TM1640Start
                                           ; SOURCE LINE # 1272
06FD 7FC5              MOV     R7,#0C5H
06FF 120000      R     LCALL   _TM1640WriteByte
                                           ; SOURCE LINE # 1273
0702 AB00        R     MOV     R3,dichk_temp
0704 AA00        R     MOV     R2,dichk_temp+01H
0706 A900        R     MOV     R1,dichk_temp+02H
0708 900004            MOV     DPTR,#04H
070B 120000      R     LCALL   L?0027
                                           ; SOURCE LINE # 1274
070E 120000      R     LCALL   TM1640Stop
                                           ; SOURCE LINE # 1276
0711 120000      R     LCALL   TM1640Start
                                           ; SOURCE LINE # 1277
0714 7FC8              MOV     R7,#0C8H
0716 120000      R     LCALL   _TM1640WriteByte
                                           ; SOURCE LINE # 1278
0719 AB00        R     MOV     R3,dichk_temp
071B AA00        R     MOV     R2,dichk_temp+01H
071D A900        R     MOV     R1,dichk_temp+02H
071F 900004            MOV     DPTR,#04H
0722 120000      R     LCALL   L?0027
                                           ; SOURCE LINE # 1279
0725 120000      R     LCALL   TM1640Stop
                                           ; SOURCE LINE # 1281
0728 120000      R     LCALL   TM1640Start
                                           ; SOURCE LINE # 1282
072B 7FC7              MOV     R7,#0C7H
072D 120000      R     LCALL   _TM1640WriteByte
                                           ; SOURCE LINE # 1283
0730 AB00        R     MOV     R3,dichk_temp
0732 AA00        R     MOV     R2,dichk_temp+01H
0734 A900        R     MOV     R1,dichk_temp+02H
0736 900004            MOV     DPTR,#04H
0739 120000      R     LCALL   L?0027
                                           ; SOURCE LINE # 1284
C51 COMPILER V9.60.0.0   TM1640                                                            10/03/2022 19:06:34 PAGE 83  

073C 120000      R     LCALL   TM1640Stop
                                           ; SOURCE LINE # 1286
073F 120000      R     LCALL   TM1640Start
                                           ; SOURCE LINE # 1287
0742 7FCA              MOV     R7,#0CAH
0744 120000      R     LCALL   _TM1640WriteByte
                                           ; SOURCE LINE # 1288
0747 AB00        R     MOV     R3,dichk_temp
0749 AA00        R     MOV     R2,dichk_temp+01H
074B A900        R     MOV     R1,dichk_temp+02H
074D 900004            MOV     DPTR,#04H
0750 120000      R     LCALL   L?0027
                                           ; SOURCE LINE # 1289
0753 120000      R     LCALL   TM1640Stop
                                           ; SOURCE LINE # 1291
0756 120000      R     LCALL   TM1640Start
                                           ; SOURCE LINE # 1292
0759 7FC9              MOV     R7,#0C9H
075B 120000      R     LCALL   _TM1640WriteByte
                                           ; SOURCE LINE # 1293
075E AB00        R     MOV     R3,dichk_temp
0760 AA00        R     MOV     R2,dichk_temp+01H
0762 A900        R     MOV     R1,dichk_temp+02H
0764 900004            MOV     DPTR,#04H
0767 120000      R     LCALL   L?0027
                                           ; SOURCE LINE # 1294
076A 120000      R     LCALL   TM1640Stop
                                           ; SOURCE LINE # 1296
076D 7FF4              MOV     R7,#0F4H
076F 7E01              MOV     R6,#01H
0771 120000      E     LCALL   _Delay_Some_Time
                                           ; SOURCE LINE # 1298
0774 120000      R     LCALL   TM1640Start
                                           ; SOURCE LINE # 1299
0777 7FC2              MOV     R7,#0C2H
0779 120000      R     LCALL   _TM1640WriteByte
                                           ; SOURCE LINE # 1300
077C AB00        R     MOV     R3,dichk_temp
077E AA00        R     MOV     R2,dichk_temp+01H
0780 A900        R     MOV     R1,dichk_temp+02H
0782 900005            MOV     DPTR,#05H
0785 120000      R     LCALL   L?0027
                                           ; SOURCE LINE # 1301
0788 120000      R     LCALL   TM1640Stop
                                           ; SOURCE LINE # 1303
078B 120000      R     LCALL   TM1640Start
                                           ; SOURCE LINE # 1304
078E 7FC0              MOV     R7,#0C0H
0790 120000      R     LCALL   _TM1640WriteByte
                                           ; SOURCE LINE # 1305
0793 AB00        R     MOV     R3,dichk_temp
0795 AA00        R     MOV     R2,dichk_temp+01H
0797 A900        R     MOV     R1,dichk_temp+02H
0799 900005            MOV     DPTR,#05H
079C 120000      R     LCALL   L?0027
                                           ; SOURCE LINE # 1306
079F 120000      R     LCALL   TM1640Stop
                                           ; SOURCE LINE # 1308
07A2 120000      R     LCALL   TM1640Start
                                           ; SOURCE LINE # 1309
07A5 7FCC              MOV     R7,#0CCH
07A7 120000      R     LCALL   _TM1640WriteByte
C51 COMPILER V9.60.0.0   TM1640                                                            10/03/2022 19:06:34 PAGE 84  

                                           ; SOURCE LINE # 1310
07AA AB00        R     MOV     R3,dichk_temp
07AC AA00        R     MOV     R2,dichk_temp+01H
07AE A900        R     MOV     R1,dichk_temp+02H
07B0 900005            MOV     DPTR,#05H
07B3 120000      R     LCALL   L?0027
                                           ; SOURCE LINE # 1311
07B6 120000      R     LCALL   TM1640Stop
                                           ; SOURCE LINE # 1313
07B9 120000      R     LCALL   TM1640Start
                                           ; SOURCE LINE # 1314
07BC 7FCE              MOV     R7,#0CEH
07BE 120000      R     LCALL   _TM1640WriteByte
                                           ; SOURCE LINE # 1315
07C1 AB00        R     MOV     R3,dichk_temp
07C3 AA00        R     MOV     R2,dichk_temp+01H
07C5 A900        R     MOV     R1,dichk_temp+02H
07C7 900005            MOV     DPTR,#05H
07CA 120000      R     LCALL   L?0027
                                           ; SOURCE LINE # 1316
07CD 120000      R     LCALL   TM1640Stop
                                           ; SOURCE LINE # 1318
07D0 120000      R     LCALL   TM1640Start
                                           ; SOURCE LINE # 1319
07D3 7FCF              MOV     R7,#0CFH
07D5 120000      R     LCALL   _TM1640WriteByte
                                           ; SOURCE LINE # 1320
07D8 AB00        R     MOV     R3,dichk_temp
07DA AA00        R     MOV     R2,dichk_temp+01H
07DC A900        R     MOV     R1,dichk_temp+02H
07DE 900005            MOV     DPTR,#05H
07E1 120000      R     LCALL   L?0027
                                           ; SOURCE LINE # 1321
07E4 120000      R     LCALL   TM1640Stop
                                           ; SOURCE LINE # 1323
07E7 120000      R     LCALL   TM1640Start
                                           ; SOURCE LINE # 1324
07EA 7FCD              MOV     R7,#0CDH
07EC 120000      R     LCALL   _TM1640WriteByte
                                           ; SOURCE LINE # 1325
07EF AB00        R     MOV     R3,dichk_temp
07F1 AA00        R     MOV     R2,dichk_temp+01H
07F3 A900        R     MOV     R1,dichk_temp+02H
07F5 900005            MOV     DPTR,#05H
07F8 120000      R     LCALL   L?0027
                                           ; SOURCE LINE # 1326
07FB 120000      R     LCALL   TM1640Stop
                                           ; SOURCE LINE # 1328
07FE 120000      R     LCALL   TM1640Start
                                           ; SOURCE LINE # 1329
0801 7FCB              MOV     R7,#0CBH
0803 120000      R     LCALL   _TM1640WriteByte
                                           ; SOURCE LINE # 1330
0806 AB00        R     MOV     R3,dichk_temp
0808 AA00        R     MOV     R2,dichk_temp+01H
080A A900        R     MOV     R1,dichk_temp+02H
080C 900005            MOV     DPTR,#05H
080F 120000      R     LCALL   L?0027
                                           ; SOURCE LINE # 1331
0812 120000      R     LCALL   TM1640Stop
                                           ; SOURCE LINE # 1333
0815 120000      R     LCALL   TM1640Start
C51 COMPILER V9.60.0.0   TM1640                                                            10/03/2022 19:06:34 PAGE 85  

                                           ; SOURCE LINE # 1334
0818 7FC1              MOV     R7,#0C1H
081A 120000      R     LCALL   _TM1640WriteByte
                                           ; SOURCE LINE # 1335
081D AB00        R     MOV     R3,dichk_temp
081F AA00        R     MOV     R2,dichk_temp+01H
0821 A900        R     MOV     R1,dichk_temp+02H
0823 900005            MOV     DPTR,#05H
0826 120000      R     LCALL   L?0027
                                           ; SOURCE LINE # 1336
0829 120000      R     LCALL   TM1640Stop
                                           ; SOURCE LINE # 1338
082C 120000      R     LCALL   TM1640Start
                                           ; SOURCE LINE # 1339
082F 7FC4              MOV     R7,#0C4H
0831 120000      R     LCALL   _TM1640WriteByte
                                           ; SOURCE LINE # 1340
0834 AB00        R     MOV     R3,dichk_temp
0836 AA00        R     MOV     R2,dichk_temp+01H
0838 A900        R     MOV     R1,dichk_temp+02H
083A 900005            MOV     DPTR,#05H
083D 120000      R     LCALL   L?0027
                                           ; SOURCE LINE # 1341
0840 120000      R     LCALL   TM1640Stop
                                           ; SOURCE LINE # 1343
0843 120000      R     LCALL   TM1640Start
                                           ; SOURCE LINE # 1344
0846 7FC3              MOV     R7,#0C3H
0848 120000      R     LCALL   _TM1640WriteByte
                                           ; SOURCE LINE # 1345
084B AB00        R     MOV     R3,dichk_temp
084D AA00        R     MOV     R2,dichk_temp+01H
084F A900        R     MOV     R1,dichk_temp+02H
0851 900005            MOV     DPTR,#05H
0854 120000      R     LCALL   L?0027
                                           ; SOURCE LINE # 1346
0857 120000      R     LCALL   TM1640Stop
                                           ; SOURCE LINE # 1348
085A 120000      R     LCALL   TM1640Start
                                           ; SOURCE LINE # 1349
085D 7FC6              MOV     R7,#0C6H
085F 120000      R     LCALL   _TM1640WriteByte
                                           ; SOURCE LINE # 1350
0862 AB00        R     MOV     R3,dichk_temp
0864 AA00        R     MOV     R2,dichk_temp+01H
0866 A900        R     MOV     R1,dichk_temp+02H
0868 900005            MOV     DPTR,#05H
086B 120000      R     LCALL   L?0027
                                           ; SOURCE LINE # 1351
086E 120000      R     LCALL   TM1640Stop
                                           ; SOURCE LINE # 1353
0871 120000      R     LCALL   TM1640Start
                                           ; SOURCE LINE # 1354
0874 7FC5              MOV     R7,#0C5H
0876 120000      R     LCALL   _TM1640WriteByte
                                           ; SOURCE LINE # 1355
0879 AB00        R     MOV     R3,dichk_temp
087B AA00        R     MOV     R2,dichk_temp+01H
087D A900        R     MOV     R1,dichk_temp+02H
087F 900005            MOV     DPTR,#05H
0882 120000      R     LCALL   L?0027
                                           ; SOURCE LINE # 1356
C51 COMPILER V9.60.0.0   TM1640                                                            10/03/2022 19:06:34 PAGE 86  

0885 120000      R     LCALL   TM1640Stop
                                           ; SOURCE LINE # 1358
0888 120000      R     LCALL   TM1640Start
                                           ; SOURCE LINE # 1359
088B 7FC8              MOV     R7,#0C8H
088D 120000      R     LCALL   _TM1640WriteByte
                                           ; SOURCE LINE # 1360
0890 AB00        R     MOV     R3,dichk_temp
0892 AA00        R     MOV     R2,dichk_temp+01H
0894 A900        R     MOV     R1,dichk_temp+02H
0896 900005            MOV     DPTR,#05H
0899 120000      R     LCALL   L?0027
                                           ; SOURCE LINE # 1361
089C 120000      R     LCALL   TM1640Stop
                                           ; SOURCE LINE # 1363
089F 120000      R     LCALL   TM1640Start
                                           ; SOURCE LINE # 1364
08A2 7FC7              MOV     R7,#0C7H
08A4 120000      R     LCALL   _TM1640WriteByte
                                           ; SOURCE LINE # 1365
08A7 AB00        R     MOV     R3,dichk_temp
08A9 AA00        R     MOV     R2,dichk_temp+01H
08AB A900        R     MOV     R1,dichk_temp+02H
08AD 900005            MOV     DPTR,#05H
08B0 120000      R     LCALL   L?0027
                                           ; SOURCE LINE # 1366
08B3 120000      R     LCALL   TM1640Stop
                                           ; SOURCE LINE # 1368
08B6 120000      R     LCALL   TM1640Start
                                           ; SOURCE LINE # 1369
08B9 7FCA              MOV     R7,#0CAH
08BB 120000      R     LCALL   _TM1640WriteByte
                                           ; SOURCE LINE # 1370
08BE AB00        R     MOV     R3,dichk_temp
08C0 AA00        R     MOV     R2,dichk_temp+01H
08C2 A900        R     MOV     R1,dichk_temp+02H
08C4 900005            MOV     DPTR,#05H
08C7 120000      R     LCALL   L?0027
                                           ; SOURCE LINE # 1371
08CA 120000      R     LCALL   TM1640Stop
                                           ; SOURCE LINE # 1373
08CD 120000      R     LCALL   TM1640Start
                                           ; SOURCE LINE # 1374
08D0 7FC9              MOV     R7,#0C9H
08D2 120000      R     LCALL   _TM1640WriteByte
                                           ; SOURCE LINE # 1375
08D5 AB00        R     MOV     R3,dichk_temp
08D7 AA00        R     MOV     R2,dichk_temp+01H
08D9 A900        R     MOV     R1,dichk_temp+02H
08DB 900005            MOV     DPTR,#05H
08DE 120000      R     LCALL   L?0027
                                           ; SOURCE LINE # 1376
08E1 120000      R     LCALL   TM1640Stop
                                           ; SOURCE LINE # 1378
08E4 7FF4              MOV     R7,#0F4H
08E6 7E01              MOV     R6,#01H
08E8 120000      E     LCALL   _Delay_Some_Time
                                           ; SOURCE LINE # 1380
08EB 120000      R     LCALL   TM1640Start
                                           ; SOURCE LINE # 1381
08EE 7FC2              MOV     R7,#0C2H
08F0 120000      R     LCALL   _TM1640WriteByte
C51 COMPILER V9.60.0.0   TM1640                                                            10/03/2022 19:06:34 PAGE 87  

                                           ; SOURCE LINE # 1382
08F3 AB00        R     MOV     R3,dichk_temp
08F5 AA00        R     MOV     R2,dichk_temp+01H
08F7 A900        R     MOV     R1,dichk_temp+02H
08F9 900006            MOV     DPTR,#06H
08FC 120000      R     LCALL   L?0027
                                           ; SOURCE LINE # 1383
08FF 120000      R     LCALL   TM1640Stop
                                           ; SOURCE LINE # 1385
0902 120000      R     LCALL   TM1640Start
                                           ; SOURCE LINE # 1386
0905 7FC0              MOV     R7,#0C0H
0907 120000      R     LCALL   _TM1640WriteByte
                                           ; SOURCE LINE # 1387
090A AB00        R     MOV     R3,dichk_temp
090C AA00        R     MOV     R2,dichk_temp+01H
090E A900        R     MOV     R1,dichk_temp+02H
0910 900006            MOV     DPTR,#06H
0913 120000      R     LCALL   L?0027
                                           ; SOURCE LINE # 1388
0916 120000      R     LCALL   TM1640Stop
                                           ; SOURCE LINE # 1390
0919 120000      R     LCALL   TM1640Start
                                           ; SOURCE LINE # 1391
091C 7FCC              MOV     R7,#0CCH
091E 120000      R     LCALL   _TM1640WriteByte
                                           ; SOURCE LINE # 1392
0921 AB00        R     MOV     R3,dichk_temp
0923 AA00        R     MOV     R2,dichk_temp+01H
0925 A900        R     MOV     R1,dichk_temp+02H
0927 900006            MOV     DPTR,#06H
092A 120000      R     LCALL   L?0027
                                           ; SOURCE LINE # 1393
092D 120000      R     LCALL   TM1640Stop
                                           ; SOURCE LINE # 1395
0930 120000      R     LCALL   TM1640Start
                                           ; SOURCE LINE # 1396
0933 7FCE              MOV     R7,#0CEH
0935 120000      R     LCALL   _TM1640WriteByte
                                           ; SOURCE LINE # 1397
0938 AB00        R     MOV     R3,dichk_temp
093A AA00        R     MOV     R2,dichk_temp+01H
093C A900        R     MOV     R1,dichk_temp+02H
093E 900006            MOV     DPTR,#06H
0941 120000      R     LCALL   L?0027
                                           ; SOURCE LINE # 1398
0944 120000      R     LCALL   TM1640Stop
                                           ; SOURCE LINE # 1400
0947 120000      R     LCALL   TM1640Start
                                           ; SOURCE LINE # 1401
094A 7FCF              MOV     R7,#0CFH
094C 120000      R     LCALL   _TM1640WriteByte
                                           ; SOURCE LINE # 1402
094F AB00        R     MOV     R3,dichk_temp
0951 AA00        R     MOV     R2,dichk_temp+01H
0953 A900        R     MOV     R1,dichk_temp+02H
0955 900006            MOV     DPTR,#06H
0958 120000      R     LCALL   L?0027
                                           ; SOURCE LINE # 1403
095B 120000      R     LCALL   TM1640Stop
                                           ; SOURCE LINE # 1405
095E 120000      R     LCALL   TM1640Start
C51 COMPILER V9.60.0.0   TM1640                                                            10/03/2022 19:06:34 PAGE 88  

                                           ; SOURCE LINE # 1406
0961 7FCD              MOV     R7,#0CDH
0963 120000      R     LCALL   _TM1640WriteByte
                                           ; SOURCE LINE # 1407
0966 AB00        R     MOV     R3,dichk_temp
0968 AA00        R     MOV     R2,dichk_temp+01H
096A A900        R     MOV     R1,dichk_temp+02H
096C 900006            MOV     DPTR,#06H
096F 120000      R     LCALL   L?0027
                                           ; SOURCE LINE # 1408
0972 120000      R     LCALL   TM1640Stop
                                           ; SOURCE LINE # 1410
0975 120000      R     LCALL   TM1640Start
                                           ; SOURCE LINE # 1411
0978 7FCB              MOV     R7,#0CBH
097A 120000      R     LCALL   _TM1640WriteByte
                                           ; SOURCE LINE # 1412
097D AB00        R     MOV     R3,dichk_temp
097F AA00        R     MOV     R2,dichk_temp+01H
0981 A900        R     MOV     R1,dichk_temp+02H
0983 900006            MOV     DPTR,#06H
0986 120000      R     LCALL   L?0027
                                           ; SOURCE LINE # 1413
0989 120000      R     LCALL   TM1640Stop
                                           ; SOURCE LINE # 1415
098C 120000      R     LCALL   TM1640Start
                                           ; SOURCE LINE # 1416
098F 7FC1              MOV     R7,#0C1H
0991 120000      R     LCALL   _TM1640WriteByte
                                           ; SOURCE LINE # 1417
0994 AB00        R     MOV     R3,dichk_temp
0996 AA00        R     MOV     R2,dichk_temp+01H
0998 A900        R     MOV     R1,dichk_temp+02H
099A 900006            MOV     DPTR,#06H
099D 120000      R     LCALL   L?0027
                                           ; SOURCE LINE # 1418
09A0 120000      R     LCALL   TM1640Stop
                                           ; SOURCE LINE # 1420
09A3 120000      R     LCALL   TM1640Start
                                           ; SOURCE LINE # 1421
09A6 7FC4              MOV     R7,#0C4H
09A8 120000      R     LCALL   _TM1640WriteByte
                                           ; SOURCE LINE # 1422
09AB AB00        R     MOV     R3,dichk_temp
09AD AA00        R     MOV     R2,dichk_temp+01H
09AF A900        R     MOV     R1,dichk_temp+02H
09B1 900006            MOV     DPTR,#06H
09B4 120000      R     LCALL   L?0027
                                           ; SOURCE LINE # 1423
09B7 120000      R     LCALL   TM1640Stop
                                           ; SOURCE LINE # 1425
09BA 120000      R     LCALL   TM1640Start
                                           ; SOURCE LINE # 1426
09BD 7FC3              MOV     R7,#0C3H
09BF 120000      R     LCALL   _TM1640WriteByte
                                           ; SOURCE LINE # 1427
09C2 AB00        R     MOV     R3,dichk_temp
09C4 AA00        R     MOV     R2,dichk_temp+01H
09C6 A900        R     MOV     R1,dichk_temp+02H
09C8 900006            MOV     DPTR,#06H
09CB 120000      R     LCALL   L?0027
                                           ; SOURCE LINE # 1428
C51 COMPILER V9.60.0.0   TM1640                                                            10/03/2022 19:06:34 PAGE 89  

09CE 120000      R     LCALL   TM1640Stop
                                           ; SOURCE LINE # 1430
09D1 120000      R     LCALL   TM1640Start
                                           ; SOURCE LINE # 1431
09D4 7FC6              MOV     R7,#0C6H
09D6 120000      R     LCALL   _TM1640WriteByte
                                           ; SOURCE LINE # 1432
09D9 AB00        R     MOV     R3,dichk_temp
09DB AA00        R     MOV     R2,dichk_temp+01H
09DD A900        R     MOV     R1,dichk_temp+02H
09DF 900006            MOV     DPTR,#06H
09E2 120000      R     LCALL   L?0027
                                           ; SOURCE LINE # 1433
09E5 120000      R     LCALL   TM1640Stop
                                           ; SOURCE LINE # 1435
09E8 120000      R     LCALL   TM1640Start
                                           ; SOURCE LINE # 1436
09EB 7FC5              MOV     R7,#0C5H
09ED 120000      R     LCALL   _TM1640WriteByte
                                           ; SOURCE LINE # 1437
09F0 AB00        R     MOV     R3,dichk_temp
09F2 AA00        R     MOV     R2,dichk_temp+01H
09F4 A900        R     MOV     R1,dichk_temp+02H
09F6 900006            MOV     DPTR,#06H
09F9 120000      R     LCALL   L?0027
                                           ; SOURCE LINE # 1438
09FC 120000      R     LCALL   TM1640Stop
                                           ; SOURCE LINE # 1440
09FF 120000      R     LCALL   TM1640Start
                                           ; SOURCE LINE # 1441
0A02 7FC8              MOV     R7,#0C8H
0A04 120000      R     LCALL   _TM1640WriteByte
                                           ; SOURCE LINE # 1442
0A07 AB00        R     MOV     R3,dichk_temp
0A09 AA00        R     MOV     R2,dichk_temp+01H
0A0B A900        R     MOV     R1,dichk_temp+02H
0A0D 900006            MOV     DPTR,#06H
0A10 120000      R     LCALL   L?0027
                                           ; SOURCE LINE # 1443
0A13 120000      R     LCALL   TM1640Stop
                                           ; SOURCE LINE # 1445
0A16 120000      R     LCALL   TM1640Start
                                           ; SOURCE LINE # 1446
0A19 7FC7              MOV     R7,#0C7H
0A1B 120000      R     LCALL   _TM1640WriteByte
                                           ; SOURCE LINE # 1447
0A1E AB00        R     MOV     R3,dichk_temp
0A20 AA00        R     MOV     R2,dichk_temp+01H
0A22 A900        R     MOV     R1,dichk_temp+02H
0A24 900006            MOV     DPTR,#06H
0A27 120000      R     LCALL   L?0027
                                           ; SOURCE LINE # 1448
0A2A 120000      R     LCALL   TM1640Stop
                                           ; SOURCE LINE # 1450
0A2D 120000      R     LCALL   TM1640Start
                                           ; SOURCE LINE # 1451
0A30 7FCA              MOV     R7,#0CAH
0A32 120000      R     LCALL   _TM1640WriteByte
                                           ; SOURCE LINE # 1452
0A35 AB00        R     MOV     R3,dichk_temp
0A37 AA00        R     MOV     R2,dichk_temp+01H
0A39 A900        R     MOV     R1,dichk_temp+02H
C51 COMPILER V9.60.0.0   TM1640                                                            10/03/2022 19:06:34 PAGE 90  

0A3B 900006            MOV     DPTR,#06H
0A3E 120000      R     LCALL   L?0027
                                           ; SOURCE LINE # 1453
0A41 120000      R     LCALL   TM1640Stop
                                           ; SOURCE LINE # 1455
0A44 120000      R     LCALL   TM1640Start
                                           ; SOURCE LINE # 1456
0A47 7FC9              MOV     R7,#0C9H
0A49 120000      R     LCALL   _TM1640WriteByte
                                           ; SOURCE LINE # 1457
0A4C AB00        R     MOV     R3,dichk_temp
0A4E AA00        R     MOV     R2,dichk_temp+01H
0A50 A900        R     MOV     R1,dichk_temp+02H
0A52 900006            MOV     DPTR,#06H
0A55 120000      R     LCALL   L?0027
                                           ; SOURCE LINE # 1458
0A58 120000      R     LCALL   TM1640Stop
                                           ; SOURCE LINE # 1460
0A5B 120000      R     LCALL   TM1640Start
                                           ; SOURCE LINE # 1461
0A5E 7F8B              MOV     R7,#08BH
0A60 120000      R     LCALL   _TM1640WriteByte
                                           ; SOURCE LINE # 1462
0A63 020000      R     LJMP    TM1640Stop
             ; FUNCTION _TM1640_digichk (END)

             ; FUNCTION _TM1640_L_display (BEGIN)
                                           ; SOURCE LINE # 1465
0000 8B00        R     MOV     ltemp,R3
0002 8A00        R     MOV     ltemp+01H,R2
0004 8900        R     MOV     ltemp+02H,R1
                                           ; SOURCE LINE # 1466
                                           ; SOURCE LINE # 1468
0006 120000      R     LCALL   TM1640Start
                                           ; SOURCE LINE # 1469
0009 7F44              MOV     R7,#044H
000B 120000      R     LCALL   _TM1640WriteByte
                                           ; SOURCE LINE # 1470
000E 120000      R     LCALL   TM1640Stop
                                           ; SOURCE LINE # 1471
0011 120000      R     LCALL   TM1640Start
                                           ; SOURCE LINE # 1472
0014 7FC2              MOV     R7,#0C2H
0016 120000      R     LCALL   _TM1640WriteByte
                                           ; SOURCE LINE # 1473
0019 AB00        R     MOV     R3,ltemp
001B AA00        R     MOV     R2,ltemp+01H
001D A900        R     MOV     R1,ltemp+02H
001F 120000      E     LCALL   ?C?CLDPTR
0022 FF                MOV     R7,A
0023 120000      R     LCALL   _TM1640WriteByte
                                           ; SOURCE LINE # 1474
0026 120000      R     LCALL   TM1640Stop
                                           ; SOURCE LINE # 1475
0029 120000      R     LCALL   TM1640Start
                                           ; SOURCE LINE # 1476
002C 7FC0              MOV     R7,#0C0H
002E 120000      R     LCALL   _TM1640WriteByte
                                           ; SOURCE LINE # 1477
0031 AB00        R     MOV     R3,ltemp
0033 AA00        R     MOV     R2,ltemp+01H
0035 A900        R     MOV     R1,ltemp+02H
C51 COMPILER V9.60.0.0   TM1640                                                            10/03/2022 19:06:34 PAGE 91  

0037 900001            MOV     DPTR,#01H
003A 120000      R     LCALL   L?0027
                                           ; SOURCE LINE # 1478
003D 120000      R     LCALL   TM1640Stop
                                           ; SOURCE LINE # 1479
0040 120000      R     LCALL   TM1640Start
                                           ; SOURCE LINE # 1480
0043 7FCC              MOV     R7,#0CCH
0045 120000      R     LCALL   _TM1640WriteByte
                                           ; SOURCE LINE # 1481
0048 AB00        R     MOV     R3,ltemp
004A AA00        R     MOV     R2,ltemp+01H
004C A900        R     MOV     R1,ltemp+02H
004E 900002            MOV     DPTR,#02H
0051 120000      R     LCALL   L?0027
                                           ; SOURCE LINE # 1482
0054 120000      R     LCALL   TM1640Stop
                                           ; SOURCE LINE # 1483
0057 120000      R     LCALL   TM1640Start
                                           ; SOURCE LINE # 1484
005A 7FCE              MOV     R7,#0CEH
005C 120000      R     LCALL   _TM1640WriteByte
                                           ; SOURCE LINE # 1485
005F AB00        R     MOV     R3,ltemp
0061 AA00        R     MOV     R2,ltemp+01H
0063 A900        R     MOV     R1,ltemp+02H
0065 900003            MOV     DPTR,#03H
0068 120000      R     LCALL   L?0027
                                           ; SOURCE LINE # 1486
006B 120000      R     LCALL   TM1640Stop
                                           ; SOURCE LINE # 1487
006E 120000      R     LCALL   TM1640Start
                                           ; SOURCE LINE # 1488
0071 7FCF              MOV     R7,#0CFH
0073 120000      R     LCALL   _TM1640WriteByte
                                           ; SOURCE LINE # 1489
0076 AB00        R     MOV     R3,ltemp
0078 AA00        R     MOV     R2,ltemp+01H
007A A900        R     MOV     R1,ltemp+02H
007C 900004            MOV     DPTR,#04H
007F 120000      R     LCALL   L?0027
                                           ; SOURCE LINE # 1490
0082 120000      R     LCALL   TM1640Stop
                                           ; SOURCE LINE # 1491
0085 120000      R     LCALL   TM1640Start
                                           ; SOURCE LINE # 1492
0088 7FCD              MOV     R7,#0CDH
008A 120000      R     LCALL   _TM1640WriteByte
                                           ; SOURCE LINE # 1493
008D AB00        R     MOV     R3,ltemp
008F AA00        R     MOV     R2,ltemp+01H
0091 A900        R     MOV     R1,ltemp+02H
0093 900005            MOV     DPTR,#05H
0096 120000      R     LCALL   L?0027
                                           ; SOURCE LINE # 1494
0099 120000      R     LCALL   TM1640Stop
                                           ; SOURCE LINE # 1495
009C 120000      R     LCALL   TM1640Start
                                           ; SOURCE LINE # 1496
009F 7F8B              MOV     R7,#08BH
00A1 120000      R     LCALL   _TM1640WriteByte
                                           ; SOURCE LINE # 1497
C51 COMPILER V9.60.0.0   TM1640                                                            10/03/2022 19:06:34 PAGE 92  

00A4 020000      R     LJMP    TM1640Stop
             ; FUNCTION _TM1640_L_display (END)

             ; FUNCTION TM1640_GPIO_Config (BEGIN)
                                           ; SOURCE LINE # 1500
                                           ; SOURCE LINE # 1501
                                           ; SOURCE LINE # 1502
0000 759503            MOV     P2M0,#03H
                                           ; SOURCE LINE # 1503
0003 C2A0              CLR     P20
                                           ; SOURCE LINE # 1504
0005 C2A1              CLR     P21
                                           ; SOURCE LINE # 1505
0007 E4                CLR     A
0008 F5B4              MOV     PUCON0,A
                                           ; SOURCE LINE # 1506
000A 22                RET     
             ; FUNCTION TM1640_GPIO_Config (END)

C51 COMPILER V9.60.0.0   TM1640                                                            10/03/2022 19:06:34 PAGE 93  

NAME                                    CLASS   MSPACE  TYPE    OFFSET  SIZE
====                                    =====   ======  ====    ======  ====


_TM1640_U_display. . . . . . . . . . .  PUBLIC   CODE   PROC     0000H  -----
  utemp. . . . . . . . . . . . . . . .  AUTO     DATA   PTR      0000H  3
PCAPWM4. . . . . . . . . . . . . . . .  SFR      DATA   U_CHAR   00F6H  1
CCF2 . . . . . . . . . . . . . . . . .  ABSBIT   -----  BIT      00DAH  1
PDTCR. . . . . . . . . . . . . . . . .  SFR      DATA   U_CHAR   00BDH  1
TB80 . . . . . . . . . . . . . . . . .  ABSBIT   -----  BIT      009BH  1
P1M0 . . . . . . . . . . . . . . . . .  SFR      DATA   U_CHAR   0091H  1
TM1640Start. . . . . . . . . . . . . .  PUBLIC   CODE   PROC     0000H  -----
PCAPWM5. . . . . . . . . . . . . . . .  SFR      DATA   U_CHAR   00F7H  1
CCF3 . . . . . . . . . . . . . . . . .  ABSBIT   -----  BIT      00DBH  1
RTCCR. . . . . . . . . . . . . . . . .  SFR      DATA   U_CHAR   00BEH  1
TB81 . . . . . . . . . . . . . . . . .  ABSBIT   -----  BIT      009BH  1
BOREV. . . . . . . . . . . . . . . . .  SFR      DATA   U_CHAR   0096H  1
P2M0 . . . . . . . . . . . . . . . . .  SFR      DATA   U_CHAR   0095H  1
PCAPWM6. . . . . . . . . . . . . . . .  SFR      DATA   U_CHAR   00F2H  1
CCF4 . . . . . . . . . . . . . . . . .  ABSBIT   -----  BIT      00DCH  1
P3M0 . . . . . . . . . . . . . . . . .  SFR      DATA   U_CHAR   00B1H  1
P1 . . . . . . . . . . . . . . . . . .  SFR      DATA   U_CHAR   0090H  1
PCAPWM7. . . . . . . . . . . . . . . .  SFR      DATA   U_CHAR   00F3H  1
CCF5 . . . . . . . . . . . . . . . . .  ABSBIT   -----  BIT      00DDH  1
P4M0 . . . . . . . . . . . . . . . . .  SFR      DATA   U_CHAR   00B3H  1
P3M1 . . . . . . . . . . . . . . . . .  SFR      DATA   U_CHAR   00B2H  1
P2 . . . . . . . . . . . . . . . . . .  SFR      DATA   U_CHAR   00A0H  1
SM01 . . . . . . . . . . . . . . . . .  ABSBIT   -----  BIT      009FH  1
SM10 . . . . . . . . . . . . . . . . .  ABSBIT   -----  BIT      009EH  1
ISPCR. . . . . . . . . . . . . . . . .  SFR      DATA   U_CHAR   00E7H  1
XICON. . . . . . . . . . . . . . . . .  SFR      DATA   U_CHAR   00C0H  1
P3 . . . . . . . . . . . . . . . . . .  SFR      DATA   U_CHAR   00B0H  1
SM11 . . . . . . . . . . . . . . . . .  ABSBIT   -----  BIT      009EH  1
SM20 . . . . . . . . . . . . . . . . .  ABSBIT   -----  BIT      009DH  1
P4 . . . . . . . . . . . . . . . . . .  SFR      DATA   U_CHAR   00E8H  1
AC . . . . . . . . . . . . . . . . . .  ABSBIT   -----  BIT      00D6H  1
P6M0 . . . . . . . . . . . . . . . . .  SFR      DATA   U_CHAR   00B5H  1
SM21 . . . . . . . . . . . . . . . . .  ABSBIT   -----  BIT      009DH  1
EIE1 . . . . . . . . . . . . . . . . .  SFR      DATA   U_CHAR   00ADH  1
SPCON. . . . . . . . . . . . . . . . .  SFR      DATA   U_CHAR   0085H  1
P6 . . . . . . . . . . . . . . . . . .  SFR      DATA   U_CHAR   00F8H  1
WDTCR. . . . . . . . . . . . . . . . .  SFR      DATA   U_CHAR   00E1H  1
SISTA. . . . . . . . . . . . . . . . .  SFR      DATA   U_CHAR   00D3H  1
SFRPI. . . . . . . . . . . . . . . . .  SFR      DATA   U_CHAR   00ACH  1
EA . . . . . . . . . . . . . . . . . .  ABSBIT   -----  BIT      00AFH  1
ADCFG0 . . . . . . . . . . . . . . . .  SFR      DATA   U_CHAR   00C3H  1
S1CFG1 . . . . . . . . . . . . . . . .  SFR      DATA   U_CHAR   009DH  1
ADCFG1 . . . . . . . . . . . . . . . .  SFR      DATA   U_CHAR   00BBH  1
S1CFG2 . . . . . . . . . . . . . . . .  SFR      DATA   U_CHAR   009DH  1
CF . . . . . . . . . . . . . . . . . .  ABSBIT   -----  BIT      00DFH  1
CH . . . . . . . . . . . . . . . . . .  SFR      DATA   U_CHAR   00F9H  1
PWMCR. . . . . . . . . . . . . . . . .  SFR      DATA   U_CHAR   00BCH  1
RTCTM. . . . . . . . . . . . . . . . .  SFR      DATA   U_CHAR   00B6H  1
IE . . . . . . . . . . . . . . . . . .  SFR      DATA   U_CHAR   00A8H  1
CL . . . . . . . . . . . . . . . . . .  SFR      DATA   U_CHAR   00E9H  1
CCAP0H . . . . . . . . . . . . . . . .  SFR      DATA   U_CHAR   00FAH  1
CCAP1H . . . . . . . . . . . . . . . .  SFR      DATA   U_CHAR   00FBH  1
IP0H . . . . . . . . . . . . . . . . .  SFR      DATA   U_CHAR   00B7H  1
CCAP2H . . . . . . . . . . . . . . . .  SFR      DATA   U_CHAR   00FCH  1
_TM1640WriteByte . . . . . . . . . . .  PUBLIC   CODE   PROC     000DH  -----
  date . . . . . . . . . . . . . . . .  * REG *  DATA   U_CHAR   0007H  1
C51 COMPILER V9.60.0.0   TM1640                                                            10/03/2022 19:06:34 PAGE 94  

NAME                                    CLASS   MSPACE  TYPE    OFFSET  SIZE
====                                    =====   ======  ====    ======  ====


  i. . . . . . . . . . . . . . . . . .  AUTO     DATA   U_CHAR   0000H  1
  Tmp. . . . . . . . . . . . . . . . .  AUTO     DATA   U_CHAR   0001H  1
CCAP3H . . . . . . . . . . . . . . . .  SFR      DATA   U_CHAR   00FDH  1
CCAP4H . . . . . . . . . . . . . . . .  SFR      DATA   U_CHAR   00FEH  1
CCAP0L . . . . . . . . . . . . . . . .  SFR      DATA   U_CHAR   00EAH  1
CR . . . . . . . . . . . . . . . . . .  ABSBIT   -----  BIT      00DEH  1
CCAP5H . . . . . . . . . . . . . . . .  SFR      DATA   U_CHAR   00FFH  1
CCAP1L . . . . . . . . . . . . . . . .  SFR      DATA   U_CHAR   00EBH  1
CCAPM0 . . . . . . . . . . . . . . . .  SFR      DATA   U_CHAR   00DAH  1
EXF2 . . . . . . . . . . . . . . . . .  ABSBIT   -----  BIT      00CEH  1
IP0L . . . . . . . . . . . . . . . . .  SFR      DATA   U_CHAR   00B8H  1
REN0 . . . . . . . . . . . . . . . . .  ABSBIT   -----  BIT      009CH  1
TM1640Stop . . . . . . . . . . . . . .  PUBLIC   CODE   PROC     0000H  -----
CCAP6H . . . . . . . . . . . . . . . .  SFR      DATA   U_CHAR   00FAH  1
CCAP2L . . . . . . . . . . . . . . . .  SFR      DATA   U_CHAR   00ECH  1
CCAPM1 . . . . . . . . . . . . . . . .  SFR      DATA   U_CHAR   00DBH  1
ADCON0 . . . . . . . . . . . . . . . .  SFR      DATA   U_CHAR   00C4H  1
REN1 . . . . . . . . . . . . . . . . .  ABSBIT   -----  BIT      009CH  1
CCAP7H . . . . . . . . . . . . . . . .  SFR      DATA   U_CHAR   00FBH  1
CCAP3L . . . . . . . . . . . . . . . .  SFR      DATA   U_CHAR   00EDH  1
CCAPM2 . . . . . . . . . . . . . . . .  SFR      DATA   U_CHAR   00DCH  1
CCAP4L . . . . . . . . . . . . . . . .  SFR      DATA   U_CHAR   00EEH  1
CCAPM3 . . . . . . . . . . . . . . . .  SFR      DATA   U_CHAR   00DDH  1
CCAP5L . . . . . . . . . . . . . . . .  SFR      DATA   U_CHAR   00EFH  1
CCAPM4 . . . . . . . . . . . . . . . .  SFR      DATA   U_CHAR   00DEH  1
CCAP6L . . . . . . . . . . . . . . . .  SFR      DATA   U_CHAR   00EAH  1
CCAPM5 . . . . . . . . . . . . . . . .  SFR      DATA   U_CHAR   00DFH  1
CCAP7L . . . . . . . . . . . . . . . .  SFR      DATA   U_CHAR   00EBH  1
CCAPM6 . . . . . . . . . . . . . . . .  SFR      DATA   U_CHAR   00DAH  1
CY . . . . . . . . . . . . . . . . . .  ABSBIT   -----  BIT      00D7H  1
CCAPM7 . . . . . . . . . . . . . . . .  SFR      DATA   U_CHAR   00DBH  1
CKCON0 . . . . . . . . . . . . . . . .  SFR      DATA   U_CHAR   00C7H  1
CKCON1 . . . . . . . . . . . . . . . .  SFR      DATA   U_CHAR   00BFH  1
PT0L . . . . . . . . . . . . . . . . .  ABSBIT   -----  BIT      00B9H  1
RCAP2H . . . . . . . . . . . . . . . .  SFR      DATA   U_CHAR   00CBH  1
PT1L . . . . . . . . . . . . . . . . .  ABSBIT   -----  BIT      00BBH  1
PT2L . . . . . . . . . . . . . . . . .  ABSBIT   -----  BIT      00BDH  1
SP . . . . . . . . . . . . . . . . . .  SFR      DATA   U_CHAR   0081H  1
CMOD . . . . . . . . . . . . . . . . .  SFR      DATA   U_CHAR   00D9H  1
CCON . . . . . . . . . . . . . . . . .  SFR      DATA   U_CHAR   00D8H  1
OV . . . . . . . . . . . . . . . . . .  ABSBIT   -----  BIT      00D2H  1
PX0L . . . . . . . . . . . . . . . . .  ABSBIT   -----  BIT      00B8H  1
_TM1640_digichk. . . . . . . . . . . .  PUBLIC   CODE   PROC     0000H  -----
  dichk_temp . . . . . . . . . . . . .  AUTO     DATA   PTR      0000H  3
PAOE . . . . . . . . . . . . . . . . .  SFR      DATA   U_CHAR   00F1H  1
SI1ADR . . . . . . . . . . . . . . . .  SFR      DATA   U_CHAR   00D1H  1
RCAP2L . . . . . . . . . . . . . . . .  SFR      DATA   U_CHAR   00CAH  1
PX1L . . . . . . . . . . . . . . . . .  ABSBIT   -----  BIT      00BAH  1
PX2L . . . . . . . . . . . . . . . . .  ABSBIT   -----  BIT      00BEH  1
SCMD . . . . . . . . . . . . . . . . .  SFR      DATA   U_CHAR   00E6H  1
SI1DAT . . . . . . . . . . . . . . . .  SFR      DATA   U_CHAR   00D2H  1
PX3L . . . . . . . . . . . . . . . . .  ABSBIT   -----  BIT      00BFH  1
SFIE . . . . . . . . . . . . . . . . .  SFR      DATA   U_CHAR   008EH  1
C_T2 . . . . . . . . . . . . . . . . .  ABSBIT   -----  BIT      00C9H  1
CHRL . . . . . . . . . . . . . . . . .  SFR      DATA   U_CHAR   00CFH  1
RCLK . . . . . . . . . . . . . . . . .  ABSBIT   -----  BIT      00CDH  1
CLRL . . . . . . . . . . . . . . . . .  SFR      DATA   U_CHAR   00CEH  1
C51 COMPILER V9.60.0.0   TM1640                                                            10/03/2022 19:06:34 PAGE 95  

NAME                                    CLASS   MSPACE  TYPE    OFFSET  SIZE
====                                    =====   ======  ====    ======  ====


SI1CON . . . . . . . . . . . . . . . .  SFR      DATA   U_CHAR   00D4H  1
TCLK . . . . . . . . . . . . . . . . .  ABSBIT   -----  BIT      00CCH  1
IFADRH . . . . . . . . . . . . . . . .  SFR      DATA   U_CHAR   00E3H  1
IFMT . . . . . . . . . . . . . . . . .  SFR      DATA   U_CHAR   00E5H  1
P10. . . . . . . . . . . . . . . . . .  ABSBIT   -----  BIT      0090H  1
P20. . . . . . . . . . . . . . . . . .  ABSBIT   -----  BIT      00A0H  1
P11. . . . . . . . . . . . . . . . . .  ABSBIT   -----  BIT      0091H  1
P30. . . . . . . . . . . . . . . . . .  ABSBIT   -----  BIT      00B0H  1
P21. . . . . . . . . . . . . . . . . .  ABSBIT   -----  BIT      00A1H  1
P12. . . . . . . . . . . . . . . . . .  ABSBIT   -----  BIT      0092H  1
P40. . . . . . . . . . . . . . . . . .  ABSBIT   -----  BIT      00E8H  1
IFADRL . . . . . . . . . . . . . . . .  SFR      DATA   U_CHAR   00E4H  1
P31. . . . . . . . . . . . . . . . . .  ABSBIT   -----  BIT      00B1H  1
P22. . . . . . . . . . . . . . . . . .  ABSBIT   -----  BIT      00A2H  1
P13. . . . . . . . . . . . . . . . . .  ABSBIT   -----  BIT      0093H  1
P41. . . . . . . . . . . . . . . . . .  ABSBIT   -----  BIT      00E9H  1
P32. . . . . . . . . . . . . . . . . .  ABSBIT   -----  BIT      00B2H  1
P23. . . . . . . . . . . . . . . . . .  ABSBIT   -----  BIT      00A3H  1
SMCCFG . . . . . . . . . . . . . . . .  SFR      DATA   U_CHAR   009DH  1
LINCFG . . . . . . . . . . . . . . . .  SFR      DATA   U_CHAR   009DH  1
P14. . . . . . . . . . . . . . . . . .  ABSBIT   -----  BIT      0094H  1
TMOD . . . . . . . . . . . . . . . . .  SFR      DATA   U_CHAR   0089H  1
TCON . . . . . . . . . . . . . . . . .  SFR      DATA   U_CHAR   0088H  1
P60. . . . . . . . . . . . . . . . . .  ABSBIT   -----  BIT      00F8H  1
P33. . . . . . . . . . . . . . . . . .  ABSBIT   -----  BIT      00B3H  1
P24. . . . . . . . . . . . . . . . . .  ABSBIT   -----  BIT      00A4H  1
P15. . . . . . . . . . . . . . . . . .  ABSBIT   -----  BIT      0095H  1
P61. . . . . . . . . . . . . . . . . .  ABSBIT   -----  BIT      00F9H  1
SIS1TA . . . . . . . . . . . . . . . .  SFR      DATA   U_CHAR   00D3H  1
PUCON0 . . . . . . . . . . . . . . . .  SFR      DATA   U_CHAR   00B4H  1
P34. . . . . . . . . . . . . . . . . .  ABSBIT   -----  BIT      00B4H  1
P25. . . . . . . . . . . . . . . . . .  ABSBIT   -----  BIT      00A5H  1
P16. . . . . . . . . . . . . . . . . .  ABSBIT   -----  BIT      0096H  1
P44. . . . . . . . . . . . . . . . . .  ABSBIT   -----  BIT      00ECH  1
PUCON1 . . . . . . . . . . . . . . . .  SFR      DATA   U_CHAR   00B4H  1
P35. . . . . . . . . . . . . . . . . .  ABSBIT   -----  BIT      00B5H  1
P26. . . . . . . . . . . . . . . . . .  ABSBIT   -----  BIT      00A6H  1
P17. . . . . . . . . . . . . . . . . .  ABSBIT   -----  BIT      0097H  1
TM1640_GPIO_Config . . . . . . . . . .  PUBLIC   CODE   PROC     0000H  -----
P45. . . . . . . . . . . . . . . . . .  ABSBIT   -----  BIT      00EDH  1
P27. . . . . . . . . . . . . . . . . .  ABSBIT   -----  BIT      00A7H  1
P47. . . . . . . . . . . . . . . . . .  ABSBIT   -----  BIT      00EFH  1
KBMASK . . . . . . . . . . . . . . . .  SFR      DATA   U_CHAR   00D7H  1
IE0. . . . . . . . . . . . . . . . . .  ABSBIT   -----  BIT      0089H  1
IE1. . . . . . . . . . . . . . . . . .  ABSBIT   -----  BIT      008BH  1
IE2. . . . . . . . . . . . . . . . . .  ABSBIT   -----  BIT      00C1H  1
B. . . . . . . . . . . . . . . . . . .  SFR      DATA   U_CHAR   00F0H  1
IE3. . . . . . . . . . . . . . . . . .  ABSBIT   -----  BIT      00C5H  1
KBPATN . . . . . . . . . . . . . . . .  SFR      DATA   U_CHAR   00D5H  1
CP_RL2 . . . . . . . . . . . . . . . .  ABSBIT   -----  BIT      00C8H  1
ACC. . . . . . . . . . . . . . . . . .  SFR      DATA   U_CHAR   00E0H  1
ES0. . . . . . . . . . . . . . . . . .  ABSBIT   -----  BIT      00ACH  1
_TM1640_display. . . . . . . . . . . .  PUBLIC   CODE   PROC     0000H  -----
  no_digits. . . . . . . . . . . . . .  AUTO     DATA   PTR      0000H  3
  i. . . . . . . . . . . . . . . . . .  AUTO     DATA   U_CHAR   0003H  1
ET0. . . . . . . . . . . . . . . . . .  ABSBIT   -----  BIT      00A9H  1
ET1. . . . . . . . . . . . . . . . . .  ABSBIT   -----  BIT      00ABH  1
C51 COMPILER V9.60.0.0   TM1640                                                            10/03/2022 19:06:34 PAGE 96  

NAME                                    CLASS   MSPACE  TYPE    OFFSET  SIZE
====                                    =====   ======  ====    ======  ====


TF0. . . . . . . . . . . . . . . . . .  ABSBIT   -----  BIT      008DH  1
ET2. . . . . . . . . . . . . . . . . .  ABSBIT   -----  BIT      00ADH  1
RI0. . . . . . . . . . . . . . . . . .  ABSBIT   -----  BIT      0098H  1
TF1. . . . . . . . . . . . . . . . . .  ABSBIT   -----  BIT      008FH  1
_TM1640_UM_display . . . . . . . . . .  PUBLIC   CODE   PROC     0000H  -----
  co_name. . . . . . . . . . . . . . .  AUTO     DATA   PTR      0000H  3
TF2. . . . . . . . . . . . . . . . . .  ABSBIT   -----  BIT      00CFH  1
RI1. . . . . . . . . . . . . . . . . .  ABSBIT   -----  BIT      0098H  1
TH0. . . . . . . . . . . . . . . . . .  SFR      DATA   U_CHAR   008CH  1
EX0. . . . . . . . . . . . . . . . . .  ABSBIT   -----  BIT      00A8H  1
TI0. . . . . . . . . . . . . . . . . .  ABSBIT   -----  BIT      0099H  1
TH1. . . . . . . . . . . . . . . . . .  SFR      DATA   U_CHAR   008DH  1
IT0. . . . . . . . . . . . . . . . . .  ABSBIT   -----  BIT      0088H  1
TH2. . . . . . . . . . . . . . . . . .  SFR      DATA   U_CHAR   00CDH  1
EX1. . . . . . . . . . . . . . . . . .  ABSBIT   -----  BIT      00AAH  1
TI1. . . . . . . . . . . . . . . . . .  ABSBIT   -----  BIT      0099H  1
IT1. . . . . . . . . . . . . . . . . .  ABSBIT   -----  BIT      008AH  1
P. . . . . . . . . . . . . . . . . . .  ABSBIT   -----  BIT      00D0H  1
IT2. . . . . . . . . . . . . . . . . .  ABSBIT   -----  BIT      00C0H  1
EX2. . . . . . . . . . . . . . . . . .  ABSBIT   -----  BIT      00C2H  1
IT3. . . . . . . . . . . . . . . . . .  ABSBIT   -----  BIT      00C4H  1
EX3. . . . . . . . . . . . . . . . . .  ABSBIT   -----  BIT      00C6H  1
TL0. . . . . . . . . . . . . . . . . .  SFR      DATA   U_CHAR   008AH  1
TL1. . . . . . . . . . . . . . . . . .  SFR      DATA   U_CHAR   008BH  1
TL2. . . . . . . . . . . . . . . . . .  SFR      DATA   U_CHAR   00CCH  1
IFD. . . . . . . . . . . . . . . . . .  SFR      DATA   U_CHAR   00E2H  1
S0CFG. . . . . . . . . . . . . . . . .  SFR      DATA   U_CHAR   009CH  1
RS0. . . . . . . . . . . . . . . . . .  ABSBIT   -----  BIT      00D3H  1
ADCDH. . . . . . . . . . . . . . . . .  SFR      DATA   U_CHAR   00C6H  1
S1CFG. . . . . . . . . . . . . . . . .  SFR      DATA   U_CHAR   009CH  1
RS1. . . . . . . . . . . . . . . . . .  ABSBIT   -----  BIT      00D4H  1
TR0. . . . . . . . . . . . . . . . . .  ABSBIT   -----  BIT      008CH  1
TR1. . . . . . . . . . . . . . . . . .  ABSBIT   -----  BIT      008EH  1
TR2. . . . . . . . . . . . . . . . . .  ABSBIT   -----  BIT      00CAH  1
EIP1H. . . . . . . . . . . . . . . . .  SFR      DATA   U_CHAR   00AFH  1
ADCDL. . . . . . . . . . . . . . . . .  SFR      DATA   U_CHAR   00C5H  1
_Delay_Some_Time . . . . . . . . . . .  EXTERN   CODE   PROC     -----  -----
P1AIO. . . . . . . . . . . . . . . . .  SFR      DATA   U_CHAR   0092H  1
EIP1L. . . . . . . . . . . . . . . . .  SFR      DATA   U_CHAR   00AEH  1
S1BRC. . . . . . . . . . . . . . . . .  SFR      DATA   U_CHAR   009BH  1
DPH. . . . . . . . . . . . . . . . . .  SFR      DATA   U_CHAR   0083H  1
DPL. . . . . . . . . . . . . . . . . .  SFR      DATA   U_CHAR   0082H  1
S0BUF. . . . . . . . . . . . . . . . .  SFR      DATA   U_CHAR   0099H  1
PCON0. . . . . . . . . . . . . . . . .  SFR      DATA   U_CHAR   0087H  1
SPSTAT . . . . . . . . . . . . . . . .  SFR      DATA   U_CHAR   0084H  1
S1BUF. . . . . . . . . . . . . . . . .  SFR      DATA   U_CHAR   0099H  1
PCON1. . . . . . . . . . . . . . . . .  SFR      DATA   U_CHAR   0097H  1
EXEN2. . . . . . . . . . . . . . . . .  ABSBIT   -----  BIT      00CBH  1
_TM1640_Init . . . . . . . . . . . . .  PUBLIC   CODE   PROC     0000H  -----
  InValue. . . . . . . . . . . . . . .  AUTO     DATA   U_CHAR   0000H  1
S0CON. . . . . . . . . . . . . . . . .  SFR      DATA   U_CHAR   0098H  1
S1CON. . . . . . . . . . . . . . . . .  SFR      DATA   U_CHAR   0098H  1
INT2H. . . . . . . . . . . . . . . . .  ABSBIT   -----  BIT      00C3H  1
T2MOD. . . . . . . . . . . . . . . . .  SFR      DATA   U_CHAR   00C9H  1
T2CON. . . . . . . . . . . . . . . . .  SFR      DATA   U_CHAR   00C8H  1
INT3H. . . . . . . . . . . . . . . . .  ABSBIT   -----  BIT      00C7H  1
SADEN. . . . . . . . . . . . . . . . .  SFR      DATA   U_CHAR   00B9H  1
C51 COMPILER V9.60.0.0   TM1640                                                            10/03/2022 19:06:34 PAGE 97  

NAME                                    CLASS   MSPACE  TYPE    OFFSET  SIZE
====                                    =====   ======  ====    ======  ====


SM00_FE. . . . . . . . . . . . . . . .  ABSBIT   -----  BIT      009FH  1
S1BRT. . . . . . . . . . . . . . . . .  SFR      DATA   U_CHAR   009AH  1
KBCON. . . . . . . . . . . . . . . . .  SFR      DATA   U_CHAR   00D6H  1
PSL. . . . . . . . . . . . . . . . . .  ABSBIT   -----  BIT      00BCH  1
SADDR. . . . . . . . . . . . . . . . .  SFR      DATA   U_CHAR   00A9H  1
AUXR0. . . . . . . . . . . . . . . . .  SFR      DATA   U_CHAR   00A1H  1
XICFG. . . . . . . . . . . . . . . . .  SFR      DATA   U_CHAR   00C1H  1
AUXR1. . . . . . . . . . . . . . . . .  SFR      DATA   U_CHAR   00A2H  1
AUXR2. . . . . . . . . . . . . . . . .  SFR      DATA   U_CHAR   00A3H  1
SIADR. . . . . . . . . . . . . . . . .  SFR      DATA   U_CHAR   00D1H  1
AUXR3. . . . . . . . . . . . . . . . .  SFR      DATA   U_CHAR   00A4H  1
_TM1640_L_display. . . . . . . . . . .  PUBLIC   CODE   PROC     0000H  -----
  ltemp. . . . . . . . . . . . . . . .  AUTO     DATA   PTR      0000H  3
F0 . . . . . . . . . . . . . . . . . .  ABSBIT   -----  BIT      00D5H  1
_TM1640_M_display. . . . . . . . . . .  PUBLIC   CODE   PROC     0000H  -----
  mtemp. . . . . . . . . . . . . . . .  AUTO     DATA   PTR      0000H  3
SIDAT. . . . . . . . . . . . . . . . .  SFR      DATA   U_CHAR   00D2H  1
F1 . . . . . . . . . . . . . . . . . .  ABSBIT   -----  BIT      00D1H  1
PCAPWM0. . . . . . . . . . . . . . . .  SFR      DATA   U_CHAR   00F2H  1
PSW. . . . . . . . . . . . . . . . . .  SFR      DATA   U_CHAR   00D0H  1
PCAPWM1. . . . . . . . . . . . . . . .  SFR      DATA   U_CHAR   00F3H  1
PCAPWM2. . . . . . . . . . . . . . . .  SFR      DATA   U_CHAR   00F4H  1
CCF0 . . . . . . . . . . . . . . . . .  ABSBIT   -----  BIT      00D8H  1
RB80 . . . . . . . . . . . . . . . . .  ABSBIT   -----  BIT      009AH  1
PCAPWM3. . . . . . . . . . . . . . . .  SFR      DATA   U_CHAR   00F5H  1
CCF1 . . . . . . . . . . . . . . . . .  ABSBIT   -----  BIT      00D9H  1
SICON. . . . . . . . . . . . . . . . .  SFR      DATA   U_CHAR   00D4H  1
RB81 . . . . . . . . . . . . . . . . .  ABSBIT   -----  BIT      009AH  1
SPDAT. . . . . . . . . . . . . . . . .  SFR      DATA   U_CHAR   0086H  1


MODULE INFORMATION:   STATIC OVERLAYABLE
   CODE SIZE        =   7013    ----
   CONSTANT SIZE    =   ----    ----
   XDATA SIZE       =   ----    ----
   PDATA SIZE       =   ----    ----
   DATA SIZE        =   ----      22
   IDATA SIZE       =   ----    ----
   BIT SIZE         =   ----    ----
   EDATA SIZE       =   ----    ----
   HDATA SIZE       =   ----    ----
   XDATA CONST SIZE =   ----    ----
   FAR CONST SIZE   =   ----    ----
END OF MODULE INFORMATION.


C51 COMPILATION COMPLETE.  0 WARNING(S),  0 ERROR(S)
